
bin\Debug\RP6.elf:     file format elf32-avr

Sections:
Idx Name          Size      VMA       LMA       File off  Algn
  0 .text         00002f56  00000000  00000000  00000094  2**1
                  CONTENTS, ALLOC, LOAD, READONLY, CODE
  1 .data         00000010  00800060  00002f56  00002fea  2**0
                  CONTENTS, ALLOC, LOAD, DATA
  2 .bss          000000ee  00800070  00800070  00002ffa  2**0
                  ALLOC
  3 .debug_aranges 00000080  00000000  00000000  00002ffa  2**0
                  CONTENTS, READONLY, DEBUGGING
  4 .debug_pubnames 00000ad3  00000000  00000000  0000307a  2**0
                  CONTENTS, READONLY, DEBUGGING
  5 .debug_info   00001b88  00000000  00000000  00003b4d  2**0
                  CONTENTS, READONLY, DEBUGGING
  6 .debug_abbrev 000005ab  00000000  00000000  000056d5  2**0
                  CONTENTS, READONLY, DEBUGGING
  7 .debug_line   00001daf  00000000  00000000  00005c80  2**0
                  CONTENTS, READONLY, DEBUGGING
  8 .debug_frame  00000480  00000000  00000000  00007a30  2**2
                  CONTENTS, READONLY, DEBUGGING
  9 .debug_str    00000d94  00000000  00000000  00007eb0  2**0
                  CONTENTS, READONLY, DEBUGGING

Disassembly of section .text:

00000000 <__vectors>:
       0:	0c 94 09 01 	jmp	0x212	; 0x212 <__ctors_end>
       4:	0c 94 1b 05 	jmp	0xa36	; 0xa36 <__vector_1>
       8:	0c 94 41 05 	jmp	0xa82	; 0xa82 <__vector_2>
       c:	0c 94 59 0c 	jmp	0x18b2	; 0x18b2 <__vector_3>
      10:	0c 94 a5 0b 	jmp	0x174a	; 0x174a <__vector_4>
      14:	0c 94 26 01 	jmp	0x24c	; 0x24c <__bad_interrupt>
      18:	0c 94 26 01 	jmp	0x24c	; 0x24c <__bad_interrupt>
      1c:	0c 94 26 01 	jmp	0x24c	; 0x24c <__bad_interrupt>
      20:	0c 94 26 01 	jmp	0x24c	; 0x24c <__bad_interrupt>
      24:	0c 94 26 01 	jmp	0x24c	; 0x24c <__bad_interrupt>
      28:	0c 94 63 10 	jmp	0x20c6	; 0x20c6 <__vector_10>
      2c:	0c 94 26 01 	jmp	0x24c	; 0x24c <__bad_interrupt>
      30:	0c 94 26 01 	jmp	0x24c	; 0x24c <__bad_interrupt>
      34:	0c 94 32 16 	jmp	0x2c64	; 0x2c64 <__vector_13>
      38:	0c 94 26 01 	jmp	0x24c	; 0x24c <__bad_interrupt>
      3c:	0c 94 26 01 	jmp	0x24c	; 0x24c <__bad_interrupt>
      40:	0c 94 26 01 	jmp	0x24c	; 0x24c <__bad_interrupt>
      44:	0c 94 26 01 	jmp	0x24c	; 0x24c <__bad_interrupt>
      48:	0c 94 26 01 	jmp	0x24c	; 0x24c <__bad_interrupt>
      4c:	0c 94 57 14 	jmp	0x28ae	; 0x28ae <__vector_19>
      50:	0c 94 26 01 	jmp	0x24c	; 0x24c <__bad_interrupt>

00000054 <__c.2098>:
      54:	54 68 65 20 52 6f 62 6f 74 20 6e 65 65 64 73 20     The Robot needs 
      64:	74 6f 20 62 65 20 72 65 73 65 74 74 65 64 20 6e     to be resetted n
      74:	6f 77 2e 0a 0a 00                                   ow....

0000007a <__c.2096>:
      7a:	59 6f 75 20 6e 65 65 64 20 74 6f 20 63 68 65 63     You need to chec
      8a:	6b 20 4d 6f 74 6f 72 20 61 73 73 65 6d 62 6c 79     k Motor assembly
      9a:	20 28 6f 72 20 79 6f 75 72 20 73 6f 66 74 77 61      (or your softwa
      aa:	72 65 29 2e 0a 0a 00                                re)....

000000b1 <__c.2094>:
      b1:	0a 0a 28 73 2e 20 74 61 73 6b 5f 6d 6f 74 6f 72     ..(s. task_motor
      c1:	43 6f 6e 74 72 6f 6c 28 29 20 66 75 6e 63 74 69     Control() functi
      d1:	6f 6e 20 69 6e 20 52 50 36 4c 69 62 21 29 0a 00     on in RP6Lib!)..

000000e1 <__c.2092>:
      e1:	0a 0a 23 23 23 20 4d 4f 54 4f 52 20 4f 56 45 52     ..### MOTOR OVER
      f1:	43 55 52 52 45 4e 54 20 23 23 23 0a 00              CURRENT ###..

000000fe <__c.2090>:
      fe:	59 6f 75 20 6e 65 65 64 20 74 6f 20 63 68 65 63     You need to chec
     10e:	6b 20 45 6e 63 6f 64 65 72 2f 4d 6f 74 6f 72 20     k Encoder/Motor 
     11e:	61 73 73 65 6d 62 6c 79 20 28 6f 72 20 79 6f 75     assembly (or you
     12e:	72 20 73 6f 66 74 77 61 72 65 29 2e 0a 0a 00        r software)....

0000013d <__c.2088>:
     13d:	21 0a 0a 28 73 2e 20 74 61 73 6b 5f 6d 6f 74 6f     !..(s. task_moto
     14d:	72 43 6f 6e 74 72 6f 6c 28 29 20 66 75 6e 63 74     rControl() funct
     15d:	69 6f 6e 20 69 6e 20 52 50 36 4c 69 62 21 29 0a     ion in RP6Lib!).
	...

0000016e <__c.2086>:
     16e:	52 49 47 48 54 00                                   RIGHT.

00000174 <__c.2084>:
     174:	4c 45 46 54 00                                      LEFT.

00000179 <__c.2082>:
     179:	41 66 66 65 63 74 65 64 20 63 68 61 6e 6e 65 6c     Affected channel
     189:	3a 00                                               :.

0000018b <__c.2080>:
     18b:	0a 23 23 23 20 45 4e 43 4f 44 45 52 20 28 4f 52     .### ENCODER (OR
     19b:	20 4d 4f 54 4f 52 29 20 4d 41 4c 46 55 4e 43 54      MOTOR) MALFUNCT
     1ab:	49 4f 4e 21 20 23 23 23 0a 00                       ION! ###..

000001b5 <__c.2078>:
     1b5:	23 23 23 23 23 20 41 4c 4c 20 4f 50 45 52 41 54     ##### ALL OPERAT
     1c5:	49 4f 4e 53 20 53 54 4f 50 50 45 44 20 54 4f 20     IONS STOPPED TO 
     1d5:	50 52 45 56 45 4e 54 20 41 4e 59 20 44 41 4d 41     PREVENT ANY DAMA
     1e5:	47 45 21 20 23 23 23 23 23 0a 00                    GE! #####..

000001f0 <__c.2076>:
     1f0:	0a 0a 23 23 23 23 23 20 45 4d 45 52 47 45 4e 43     ..##### EMERGENC
     200:	59 20 53 48 55 54 44 4f 57 4e 20 23 23 23 23 23     Y SHUTDOWN #####
     210:	0a 00                                               ..

00000212 <__ctors_end>:
     212:	11 24       	eor	r1, r1
     214:	1f be       	out	0x3f, r1	; 63
     216:	cf e5       	ldi	r28, 0x5F	; 95
     218:	d8 e0       	ldi	r29, 0x08	; 8
     21a:	de bf       	out	0x3e, r29	; 62
     21c:	cd bf       	out	0x3d, r28	; 61

0000021e <__do_copy_data>:
     21e:	10 e0       	ldi	r17, 0x00	; 0
     220:	a0 e6       	ldi	r26, 0x60	; 96
     222:	b0 e0       	ldi	r27, 0x00	; 0
     224:	e6 e5       	ldi	r30, 0x56	; 86
     226:	ff e2       	ldi	r31, 0x2F	; 47
     228:	02 c0       	rjmp	.+4      	; 0x22e <.do_copy_data_start>

0000022a <.do_copy_data_loop>:
     22a:	05 90       	lpm	r0, Z+
     22c:	0d 92       	st	X+, r0

0000022e <.do_copy_data_start>:
     22e:	a0 37       	cpi	r26, 0x70	; 112
     230:	b1 07       	cpc	r27, r17
     232:	d9 f7       	brne	.-10     	; 0x22a <.do_copy_data_loop>

00000234 <__do_clear_bss>:
     234:	11 e0       	ldi	r17, 0x01	; 1
     236:	a0 e7       	ldi	r26, 0x70	; 112
     238:	b0 e0       	ldi	r27, 0x00	; 0
     23a:	01 c0       	rjmp	.+2      	; 0x23e <.do_clear_bss_start>

0000023c <.do_clear_bss_loop>:
     23c:	1d 92       	st	X+, r1

0000023e <.do_clear_bss_start>:
     23e:	ae 35       	cpi	r26, 0x5E	; 94
     240:	b1 07       	cpc	r27, r17
     242:	e1 f7       	brne	.-8      	; 0x23c <.do_clear_bss_loop>
     244:	0e 94 ae 02 	call	0x55c	; 0x55c <main>
     248:	0c 94 a9 17 	jmp	0x2f52	; 0x2f52 <_exit>

0000024c <__bad_interrupt>:
     24c:	0c 94 00 00 	jmp	0	; 0x0 <__vectors>

00000250 <mode_Obstacle>:
drive_Mode_t DRIVE      = {SPEED_FWD, SPEED_FWD, false, 200,DRIVE_TARGET,IDLE};



void mode_Obstacle(void)
{
     250:	df 93       	push	r29
     252:	cf 93       	push	r28
     254:	00 d0       	rcall	.+0      	; 0x256 <mode_Obstacle+0x6>
     256:	cd b7       	in	r28, 0x3d	; 61
     258:	de b7       	in	r29, 0x3e	; 62
    switch(RP6_state)
     25a:	80 91 91 00 	lds	r24, 0x0091
     25e:	90 91 92 00 	lds	r25, 0x0092
     262:	9a 83       	std	Y+2, r25	; 0x02
     264:	89 83       	std	Y+1, r24	; 0x01
     266:	89 81       	ldd	r24, Y+1	; 0x01
     268:	9a 81       	ldd	r25, Y+2	; 0x02
     26a:	83 30       	cpi	r24, 0x03	; 3
     26c:	91 05       	cpc	r25, r1
     26e:	09 f4       	brne	.+2      	; 0x272 <mode_Obstacle+0x22>
     270:	44 c0       	rjmp	.+136    	; 0x2fa <mode_Obstacle+0xaa>
     272:	89 81       	ldd	r24, Y+1	; 0x01
     274:	9a 81       	ldd	r25, Y+2	; 0x02
     276:	84 30       	cpi	r24, 0x04	; 4
     278:	91 05       	cpc	r25, r1
     27a:	60 f4       	brcc	.+24     	; 0x294 <mode_Obstacle+0x44>
     27c:	89 81       	ldd	r24, Y+1	; 0x01
     27e:	9a 81       	ldd	r25, Y+2	; 0x02
     280:	81 30       	cpi	r24, 0x01	; 1
     282:	91 05       	cpc	r25, r1
     284:	01 f1       	breq	.+64     	; 0x2c6 <mode_Obstacle+0x76>
     286:	89 81       	ldd	r24, Y+1	; 0x01
     288:	9a 81       	ldd	r25, Y+2	; 0x02
     28a:	82 30       	cpi	r24, 0x02	; 2
     28c:	91 05       	cpc	r25, r1
     28e:	08 f0       	brcs	.+2      	; 0x292 <mode_Obstacle+0x42>
     290:	55 c0       	rjmp	.+170    	; 0x33c <mode_Obstacle+0xec>
     292:	dc c0       	rjmp	.+440    	; 0x44c <mode_Obstacle+0x1fc>
     294:	89 81       	ldd	r24, Y+1	; 0x01
     296:	9a 81       	ldd	r25, Y+2	; 0x02
     298:	85 30       	cpi	r24, 0x05	; 5
     29a:	91 05       	cpc	r25, r1
     29c:	09 f4       	brne	.+2      	; 0x2a0 <mode_Obstacle+0x50>
     29e:	a7 c0       	rjmp	.+334    	; 0x3ee <mode_Obstacle+0x19e>
     2a0:	89 81       	ldd	r24, Y+1	; 0x01
     2a2:	9a 81       	ldd	r25, Y+2	; 0x02
     2a4:	85 30       	cpi	r24, 0x05	; 5
     2a6:	91 05       	cpc	r25, r1
     2a8:	08 f4       	brcc	.+2      	; 0x2ac <mode_Obstacle+0x5c>
     2aa:	88 c0       	rjmp	.+272    	; 0x3bc <mode_Obstacle+0x16c>
     2ac:	89 81       	ldd	r24, Y+1	; 0x01
     2ae:	9a 81       	ldd	r25, Y+2	; 0x02
     2b0:	86 30       	cpi	r24, 0x06	; 6
     2b2:	91 05       	cpc	r25, r1
     2b4:	09 f4       	brne	.+2      	; 0x2b8 <mode_Obstacle+0x68>
     2b6:	69 c0       	rjmp	.+210    	; 0x38a <mode_Obstacle+0x13a>
     2b8:	89 81       	ldd	r24, Y+1	; 0x01
     2ba:	9a 81       	ldd	r25, Y+2	; 0x02
     2bc:	87 30       	cpi	r24, 0x07	; 7
     2be:	91 05       	cpc	r25, r1
     2c0:	09 f4       	brne	.+2      	; 0x2c4 <mode_Obstacle+0x74>
     2c2:	ad c0       	rjmp	.+346    	; 0x41e <mode_Obstacle+0x1ce>
     2c4:	c3 c0       	rjmp	.+390    	; 0x44c <mode_Obstacle+0x1fc>
    {
        case IDLE:
        break;

        case DRIVE_TARGET:
        if(DRIVE.move==false)
     2c6:	80 91 62 00 	lds	r24, 0x0062
     2ca:	81 70       	andi	r24, 0x01	; 1
     2cc:	88 23       	and	r24, r24
     2ce:	09 f0       	breq	.+2      	; 0x2d2 <mode_Obstacle+0x82>
     2d0:	bd c0       	rjmp	.+378    	; 0x44c <mode_Obstacle+0x1fc>
        {
            DRIVE.speed_left=50;
     2d2:	82 e3       	ldi	r24, 0x32	; 50
     2d4:	80 93 60 00 	sts	0x0060, r24
            DRIVE.speed_right=50;
     2d8:	82 e3       	ldi	r24, 0x32	; 50
     2da:	80 93 61 00 	sts	0x0061, r24
            DRIVE.move=true;
     2de:	80 91 62 00 	lds	r24, 0x0062
     2e2:	81 60       	ori	r24, 0x01	; 1
     2e4:	80 93 62 00 	sts	0x0062, r24
            DRIVE.move_value=1000;
     2e8:	88 ee       	ldi	r24, 0xE8	; 232
     2ea:	93 e0       	ldi	r25, 0x03	; 3
     2ec:	90 93 64 00 	sts	0x0064, r25
     2f0:	80 93 63 00 	sts	0x0063, r24
            DRIVE.state=IDLE;
     2f4:	10 92 65 00 	sts	0x0065, r1
     2f8:	a9 c0       	rjmp	.+338    	; 0x44c <mode_Obstacle+0x1fc>
        }
        break;

        case OBSTACLE_BWD:
        DRIVE.speed_left=50;
     2fa:	82 e3       	ldi	r24, 0x32	; 50
     2fc:	80 93 60 00 	sts	0x0060, r24
        DRIVE.speed_right=50;
     300:	82 e3       	ldi	r24, 0x32	; 50
     302:	80 93 61 00 	sts	0x0061, r24
        DRIVE.move=true;
     306:	80 91 62 00 	lds	r24, 0x0062
     30a:	81 60       	ori	r24, 0x01	; 1
     30c:	80 93 62 00 	sts	0x0062, r24
        DRIVE.move_value=200;
     310:	88 ec       	ldi	r24, 0xC8	; 200
     312:	90 e0       	ldi	r25, 0x00	; 0
     314:	90 93 64 00 	sts	0x0064, r25
     318:	80 93 63 00 	sts	0x0063, r24

        if(DRIVE.Obstacle_state==1)
     31c:	80 91 66 00 	lds	r24, 0x0066
     320:	81 30       	cpi	r24, 0x01	; 1
     322:	19 f4       	brne	.+6      	; 0x32a <mode_Obstacle+0xda>
        DRIVE.state=OBSTACLE_RIGHT;
     324:	86 e0       	ldi	r24, 0x06	; 6
     326:	80 93 65 00 	sts	0x0065, r24
        if(DRIVE.Obstacle_state==2)
     32a:	80 91 66 00 	lds	r24, 0x0066
     32e:	82 30       	cpi	r24, 0x02	; 2
     330:	09 f0       	breq	.+2      	; 0x334 <mode_Obstacle+0xe4>
     332:	8c c0       	rjmp	.+280    	; 0x44c <mode_Obstacle+0x1fc>
        DRIVE.state=OBSTACLE_LEFT;
     334:	84 e0       	ldi	r24, 0x04	; 4
     336:	80 93 65 00 	sts	0x0065, r24
     33a:	88 c0       	rjmp	.+272    	; 0x44c <mode_Obstacle+0x1fc>
        break;

        case OBSTACLE_FWD:
        if(DRIVE.move==false)
     33c:	80 91 62 00 	lds	r24, 0x0062
     340:	81 70       	andi	r24, 0x01	; 1
     342:	88 23       	and	r24, r24
     344:	09 f0       	breq	.+2      	; 0x348 <mode_Obstacle+0xf8>
     346:	82 c0       	rjmp	.+260    	; 0x44c <mode_Obstacle+0x1fc>
        {
            DRIVE.speed_left=50;
     348:	82 e3       	ldi	r24, 0x32	; 50
     34a:	80 93 60 00 	sts	0x0060, r24
            DRIVE.speed_right=50;
     34e:	82 e3       	ldi	r24, 0x32	; 50
     350:	80 93 61 00 	sts	0x0061, r24
            DRIVE.move=true;
     354:	80 91 62 00 	lds	r24, 0x0062
     358:	81 60       	ori	r24, 0x01	; 1
     35a:	80 93 62 00 	sts	0x0062, r24
            DRIVE.move_value=400;
     35e:	80 e9       	ldi	r24, 0x90	; 144
     360:	91 e0       	ldi	r25, 0x01	; 1
     362:	90 93 64 00 	sts	0x0064, r25
     366:	80 93 63 00 	sts	0x0063, r24

            if(DRIVE.Obstacle_state==1)
     36a:	80 91 66 00 	lds	r24, 0x0066
     36e:	81 30       	cpi	r24, 0x01	; 1
     370:	19 f4       	brne	.+6      	; 0x378 <mode_Obstacle+0x128>
            DRIVE.state=OBSTACLE_RIGHT_TWO;
     372:	87 e0       	ldi	r24, 0x07	; 7
     374:	80 93 65 00 	sts	0x0065, r24
            if(DRIVE.Obstacle_state==2)
     378:	80 91 66 00 	lds	r24, 0x0066
     37c:	82 30       	cpi	r24, 0x02	; 2
     37e:	09 f0       	breq	.+2      	; 0x382 <mode_Obstacle+0x132>
     380:	65 c0       	rjmp	.+202    	; 0x44c <mode_Obstacle+0x1fc>
            DRIVE.state=OBSTACLE_LEFT_TWO;
     382:	85 e0       	ldi	r24, 0x05	; 5
     384:	80 93 65 00 	sts	0x0065, r24
     388:	61 c0       	rjmp	.+194    	; 0x44c <mode_Obstacle+0x1fc>
        }
        break;

        case OBSTACLE_RIGHT:
        if(DRIVE.move==false)
     38a:	80 91 62 00 	lds	r24, 0x0062
     38e:	81 70       	andi	r24, 0x01	; 1
     390:	88 23       	and	r24, r24
     392:	09 f0       	breq	.+2      	; 0x396 <mode_Obstacle+0x146>
     394:	5b c0       	rjmp	.+182    	; 0x44c <mode_Obstacle+0x1fc>
        {
            DRIVE.speed_left=50;
     396:	82 e3       	ldi	r24, 0x32	; 50
     398:	80 93 60 00 	sts	0x0060, r24
            DRIVE.speed_right=50;
     39c:	82 e3       	ldi	r24, 0x32	; 50
     39e:	80 93 61 00 	sts	0x0061, r24
            DRIVE.move=true;
     3a2:	80 91 62 00 	lds	r24, 0x0062
     3a6:	81 60       	ori	r24, 0x01	; 1
     3a8:	80 93 62 00 	sts	0x0062, r24
            DRIVE.move_value=0;
     3ac:	10 92 64 00 	sts	0x0064, r1
     3b0:	10 92 63 00 	sts	0x0063, r1
            DRIVE.state=OBSTACLE_FWD;
     3b4:	82 e0       	ldi	r24, 0x02	; 2
     3b6:	80 93 65 00 	sts	0x0065, r24
     3ba:	48 c0       	rjmp	.+144    	; 0x44c <mode_Obstacle+0x1fc>
        }
        break;

        case OBSTACLE_LEFT:
        if(DRIVE.move==false)
     3bc:	80 91 62 00 	lds	r24, 0x0062
     3c0:	81 70       	andi	r24, 0x01	; 1
     3c2:	88 23       	and	r24, r24
     3c4:	09 f0       	breq	.+2      	; 0x3c8 <mode_Obstacle+0x178>
     3c6:	42 c0       	rjmp	.+132    	; 0x44c <mode_Obstacle+0x1fc>
        {
            DRIVE.speed_left=50;
     3c8:	82 e3       	ldi	r24, 0x32	; 50
     3ca:	80 93 60 00 	sts	0x0060, r24
            DRIVE.speed_right=50;
     3ce:	82 e3       	ldi	r24, 0x32	; 50
     3d0:	80 93 61 00 	sts	0x0061, r24
            DRIVE.move=true;
     3d4:	80 91 62 00 	lds	r24, 0x0062
     3d8:	81 60       	ori	r24, 0x01	; 1
     3da:	80 93 62 00 	sts	0x0062, r24
            DRIVE.move_value=0;
     3de:	10 92 64 00 	sts	0x0064, r1
     3e2:	10 92 63 00 	sts	0x0063, r1
            DRIVE.state=OBSTACLE_FWD;
     3e6:	82 e0       	ldi	r24, 0x02	; 2
     3e8:	80 93 65 00 	sts	0x0065, r24
     3ec:	2f c0       	rjmp	.+94     	; 0x44c <mode_Obstacle+0x1fc>
        }

        break;

        case OBSTACLE_LEFT_TWO:
        if(DRIVE.move==false)
     3ee:	80 91 62 00 	lds	r24, 0x0062
     3f2:	81 70       	andi	r24, 0x01	; 1
     3f4:	88 23       	and	r24, r24
     3f6:	51 f5       	brne	.+84     	; 0x44c <mode_Obstacle+0x1fc>
        {
            DRIVE.speed_left=50;
     3f8:	82 e3       	ldi	r24, 0x32	; 50
     3fa:	80 93 60 00 	sts	0x0060, r24
            DRIVE.speed_right=50;
     3fe:	82 e3       	ldi	r24, 0x32	; 50
     400:	80 93 61 00 	sts	0x0061, r24
            DRIVE.move=true;
     404:	80 91 62 00 	lds	r24, 0x0062
     408:	81 60       	ori	r24, 0x01	; 1
     40a:	80 93 62 00 	sts	0x0062, r24
            DRIVE.move_value=0;
     40e:	10 92 64 00 	sts	0x0064, r1
     412:	10 92 63 00 	sts	0x0063, r1
            DRIVE.state=DRIVE_TARGET;
     416:	81 e0       	ldi	r24, 0x01	; 1
     418:	80 93 65 00 	sts	0x0065, r24
     41c:	17 c0       	rjmp	.+46     	; 0x44c <mode_Obstacle+0x1fc>
        }

        break;

        case OBSTACLE_RIGHT_TWO:
        if(DRIVE.move==false)
     41e:	80 91 62 00 	lds	r24, 0x0062
     422:	81 70       	andi	r24, 0x01	; 1
     424:	88 23       	and	r24, r24
     426:	91 f4       	brne	.+36     	; 0x44c <mode_Obstacle+0x1fc>
        {
            DRIVE.speed_left=50;
     428:	82 e3       	ldi	r24, 0x32	; 50
     42a:	80 93 60 00 	sts	0x0060, r24
            DRIVE.speed_right=50;
     42e:	82 e3       	ldi	r24, 0x32	; 50
     430:	80 93 61 00 	sts	0x0061, r24
            DRIVE.move=true;
     434:	80 91 62 00 	lds	r24, 0x0062
     438:	81 60       	ori	r24, 0x01	; 1
     43a:	80 93 62 00 	sts	0x0062, r24
            DRIVE.move_value=0;
     43e:	10 92 64 00 	sts	0x0064, r1
     442:	10 92 63 00 	sts	0x0063, r1
            DRIVE.state=DRIVE_TARGET;
     446:	81 e0       	ldi	r24, 0x01	; 1
     448:	80 93 65 00 	sts	0x0065, r24
        }
        break;
    }
}
     44c:	0f 90       	pop	r0
     44e:	0f 90       	pop	r0
     450:	cf 91       	pop	r28
     452:	df 91       	pop	r29
     454:	08 95       	ret

00000456 <bumpersStateChanged>:


void bumpersStateChanged(void)
{
     456:	df 93       	push	r29
     458:	cf 93       	push	r28
     45a:	cd b7       	in	r28, 0x3d	; 61
     45c:	de b7       	in	r29, 0x3e	; 62

	if(bumper_left)
     45e:	80 91 94 00 	lds	r24, 0x0094
     462:	88 23       	and	r24, r24
     464:	49 f0       	breq	.+18     	; 0x478 <bumpersStateChanged+0x22>
    {
        RP6_state=OBSTACLE_BWD;
     466:	83 e0       	ldi	r24, 0x03	; 3
     468:	90 e0       	ldi	r25, 0x00	; 0
     46a:	90 93 92 00 	sts	0x0092, r25
     46e:	80 93 91 00 	sts	0x0091, r24
        DRIVE.Obstacle_state=1;
     472:	81 e0       	ldi	r24, 0x01	; 1
     474:	80 93 66 00 	sts	0x0066, r24
    }
    if(bumper_right)
     478:	80 91 f1 00 	lds	r24, 0x00F1
     47c:	88 23       	and	r24, r24
     47e:	49 f0       	breq	.+18     	; 0x492 <bumpersStateChanged+0x3c>
    {
        RP6_state=OBSTACLE_BWD;
     480:	83 e0       	ldi	r24, 0x03	; 3
     482:	90 e0       	ldi	r25, 0x00	; 0
     484:	90 93 92 00 	sts	0x0092, r25
     488:	80 93 91 00 	sts	0x0091, r24
        DRIVE.Obstacle_state=2;
     48c:	82 e0       	ldi	r24, 0x02	; 2
     48e:	80 93 66 00 	sts	0x0066, r24
    }
}
     492:	cf 91       	pop	r28
     494:	df 91       	pop	r29
     496:	08 95       	ret

00000498 <stateModel>:

void stateModel()
{
     498:	df 93       	push	r29
     49a:	cf 93       	push	r28
     49c:	cd b7       	in	r28, 0x3d	; 61
     49e:	de b7       	in	r29, 0x3e	; 62
    mode_Obstacle();
     4a0:	0e 94 28 01 	call	0x250	; 0x250 <mode_Obstacle>

    if(DRIVE.state==IDLE)
     4a4:	80 91 65 00 	lds	r24, 0x0065
     4a8:	88 23       	and	r24, r24
     4aa:	11 f4       	brne	.+4      	; 0x4b0 <stateModel+0x18>
        stop();
     4ac:	0e 94 70 09 	call	0x12e0	; 0x12e0 <stop>

    if(DRIVE.state==OBSTACLE_FWD||DRIVE.state==DRIVE_TARGET)
     4b0:	80 91 65 00 	lds	r24, 0x0065
     4b4:	82 30       	cpi	r24, 0x02	; 2
     4b6:	21 f0       	breq	.+8      	; 0x4c0 <stateModel+0x28>
     4b8:	80 91 65 00 	lds	r24, 0x0065
     4bc:	81 30       	cpi	r24, 0x01	; 1
     4be:	69 f4       	brne	.+26     	; 0x4da <stateModel+0x42>
        {move(DRIVE.speed_left,FWD,DRIVE.move_value,true);
     4c0:	80 91 60 00 	lds	r24, 0x0060
     4c4:	20 91 63 00 	lds	r18, 0x0063
     4c8:	30 91 64 00 	lds	r19, 0x0064
     4cc:	60 e0       	ldi	r22, 0x00	; 0
     4ce:	a9 01       	movw	r20, r18
     4d0:	21 e0       	ldi	r18, 0x01	; 1
     4d2:	0e 94 9a 09 	call	0x1334	; 0x1334 <move>
        stop();}
     4d6:	0e 94 70 09 	call	0x12e0	; 0x12e0 <stop>

    if(DRIVE.state==OBSTACLE_BWD)
     4da:	80 91 65 00 	lds	r24, 0x0065
     4de:	83 30       	cpi	r24, 0x03	; 3
     4e0:	69 f4       	brne	.+26     	; 0x4fc <stateModel+0x64>
        {move(DRIVE.speed_left,BWD,DRIVE.move_value,true);
     4e2:	80 91 60 00 	lds	r24, 0x0060
     4e6:	20 91 63 00 	lds	r18, 0x0063
     4ea:	30 91 64 00 	lds	r19, 0x0064
     4ee:	61 e0       	ldi	r22, 0x01	; 1
     4f0:	a9 01       	movw	r20, r18
     4f2:	21 e0       	ldi	r18, 0x01	; 1
     4f4:	0e 94 9a 09 	call	0x1334	; 0x1334 <move>
        stop();}
     4f8:	0e 94 70 09 	call	0x12e0	; 0x12e0 <stop>

    if(DRIVE.state==OBSTACLE_LEFT_TWO||DRIVE.state==OBSTACLE_RIGHT)
     4fc:	80 91 65 00 	lds	r24, 0x0065
     500:	85 30       	cpi	r24, 0x05	; 5
     502:	21 f0       	breq	.+8      	; 0x50c <stateModel+0x74>
     504:	80 91 65 00 	lds	r24, 0x0065
     508:	86 30       	cpi	r24, 0x06	; 6
     50a:	51 f4       	brne	.+20     	; 0x520 <stateModel+0x88>
        {rotate(DRIVE.speed_left,LEFT,90,true);
     50c:	80 91 60 00 	lds	r24, 0x0060
     510:	62 e0       	ldi	r22, 0x02	; 2
     512:	4a e5       	ldi	r20, 0x5A	; 90
     514:	50 e0       	ldi	r21, 0x00	; 0
     516:	21 e0       	ldi	r18, 0x01	; 1
     518:	0e 94 65 0a 	call	0x14ca	; 0x14ca <rotate>
        stop();}
     51c:	0e 94 70 09 	call	0x12e0	; 0x12e0 <stop>

    if(DRIVE.state==OBSTACLE_LEFT||DRIVE.state==OBSTACLE_RIGHT_TWO)
     520:	80 91 65 00 	lds	r24, 0x0065
     524:	84 30       	cpi	r24, 0x04	; 4
     526:	21 f0       	breq	.+8      	; 0x530 <stateModel+0x98>
     528:	80 91 65 00 	lds	r24, 0x0065
     52c:	87 30       	cpi	r24, 0x07	; 7
     52e:	51 f4       	brne	.+20     	; 0x544 <stateModel+0xac>
        {rotate(DRIVE.speed_left,RIGHT,90,true);
     530:	80 91 60 00 	lds	r24, 0x0060
     534:	63 e0       	ldi	r22, 0x03	; 3
     536:	4a e5       	ldi	r20, 0x5A	; 90
     538:	50 e0       	ldi	r21, 0x00	; 0
     53a:	21 e0       	ldi	r18, 0x01	; 1
     53c:	0e 94 65 0a 	call	0x14ca	; 0x14ca <rotate>
         stop();}
     540:	0e 94 70 09 	call	0x12e0	; 0x12e0 <stop>

    if(isMovementComplete())
     544:	0e 94 54 09 	call	0x12a8	; 0x12a8 <isMovementComplete>
     548:	88 23       	and	r24, r24
     54a:	29 f0       	breq	.+10     	; 0x556 <stateModel+0xbe>
        DRIVE.move=false;
     54c:	80 91 62 00 	lds	r24, 0x0062
     550:	8e 7f       	andi	r24, 0xFE	; 254
     552:	80 93 62 00 	sts	0x0062, r24
}
     556:	cf 91       	pop	r28
     558:	df 91       	pop	r29
     55a:	08 95       	ret

0000055c <main>:


int main(void)
{
     55c:	df 93       	push	r29
     55e:	cf 93       	push	r28
     560:	cd b7       	in	r28, 0x3d	; 61
     562:	de b7       	in	r29, 0x3e	; 62
	initRobotBase();
     564:	0e 94 a1 13 	call	0x2742	; 0x2742 <initRobotBase>
	mSleep(2500);
     568:	84 ec       	ldi	r24, 0xC4	; 196
     56a:	99 e0       	ldi	r25, 0x09	; 9
     56c:	0e 94 28 13 	call	0x2650	; 0x2650 <mSleep>

	BUMPERS_setStateChangedHandler(bumpersStateChanged);
     570:	8b e2       	ldi	r24, 0x2B	; 43
     572:	92 e0       	ldi	r25, 0x02	; 2
     574:	0e 94 ec 03 	call	0x7d8	; 0x7d8 <BUMPERS_setStateChangedHandler>

	powerON();
     578:	0e 94 27 10 	call	0x204e	; 0x204e <powerON>

	while(true)
	{
		stateModel();
     57c:	0e 94 4c 02 	call	0x498	; 0x498 <stateModel>
		task_RP6System();
     580:	0e 94 92 13 	call	0x2724	; 0x2724 <task_RP6System>
     584:	fb cf       	rjmp	.-10     	; 0x57c <main+0x20>

00000586 <enablePowerOnWarning>:
     586:	df 93       	push	r29
     588:	cf 93       	push	r28
     58a:	cd b7       	in	r28, 0x3d	; 61
     58c:	de b7       	in	r29, 0x3e	; 62
     58e:	80 91 a8 00 	lds	r24, 0x00A8
     592:	84 30       	cpi	r24, 0x04	; 4
     594:	10 f0       	brcs	.+4      	; 0x59a <enablePowerOnWarning+0x14>
     596:	10 92 a8 00 	sts	0x00A8, r1
     59a:	cf 91       	pop	r28
     59c:	df 91       	pop	r29
     59e:	08 95       	ret

000005a0 <disablePowerOnWarning>:
     5a0:	df 93       	push	r29
     5a2:	cf 93       	push	r28
     5a4:	cd b7       	in	r28, 0x3d	; 61
     5a6:	de b7       	in	r29, 0x3e	; 62
     5a8:	84 e0       	ldi	r24, 0x04	; 4
     5aa:	80 93 a8 00 	sts	0x00A8, r24
     5ae:	cf 91       	pop	r28
     5b0:	df 91       	pop	r29
     5b2:	08 95       	ret

000005b4 <updateStatusLEDs>:
     5b4:	df 93       	push	r29
     5b6:	cf 93       	push	r28
     5b8:	00 d0       	rcall	.+0      	; 0x5ba <updateStatusLEDs+0x6>
     5ba:	cd b7       	in	r28, 0x3d	; 61
     5bc:	de b7       	in	r29, 0x3e	; 62
     5be:	a7 e3       	ldi	r26, 0x37	; 55
     5c0:	b0 e0       	ldi	r27, 0x00	; 0
     5c2:	e7 e3       	ldi	r30, 0x37	; 55
     5c4:	f0 e0       	ldi	r31, 0x00	; 0
     5c6:	80 81       	ld	r24, Z
     5c8:	8c 77       	andi	r24, 0x7C	; 124
     5ca:	8c 93       	st	X, r24
     5cc:	a8 e3       	ldi	r26, 0x38	; 56
     5ce:	b0 e0       	ldi	r27, 0x00	; 0
     5d0:	e8 e3       	ldi	r30, 0x38	; 56
     5d2:	f0 e0       	ldi	r31, 0x00	; 0
     5d4:	80 81       	ld	r24, Z
     5d6:	8c 77       	andi	r24, 0x7C	; 124
     5d8:	8c 93       	st	X, r24
     5da:	80 91 93 00 	lds	r24, 0x0093
     5de:	88 70       	andi	r24, 0x08	; 8
     5e0:	88 23       	and	r24, r24
     5e2:	71 f0       	breq	.+28     	; 0x600 <updateStatusLEDs+0x4c>
     5e4:	a7 e3       	ldi	r26, 0x37	; 55
     5e6:	b0 e0       	ldi	r27, 0x00	; 0
     5e8:	e7 e3       	ldi	r30, 0x37	; 55
     5ea:	f0 e0       	ldi	r31, 0x00	; 0
     5ec:	80 81       	ld	r24, Z
     5ee:	80 68       	ori	r24, 0x80	; 128
     5f0:	8c 93       	st	X, r24
     5f2:	a8 e3       	ldi	r26, 0x38	; 56
     5f4:	b0 e0       	ldi	r27, 0x00	; 0
     5f6:	e8 e3       	ldi	r30, 0x38	; 56
     5f8:	f0 e0       	ldi	r31, 0x00	; 0
     5fa:	80 81       	ld	r24, Z
     5fc:	80 68       	ori	r24, 0x80	; 128
     5fe:	8c 93       	st	X, r24
     600:	80 91 93 00 	lds	r24, 0x0093
     604:	80 71       	andi	r24, 0x10	; 16
     606:	88 23       	and	r24, r24
     608:	71 f0       	breq	.+28     	; 0x626 <updateStatusLEDs+0x72>
     60a:	a7 e3       	ldi	r26, 0x37	; 55
     60c:	b0 e0       	ldi	r27, 0x00	; 0
     60e:	e7 e3       	ldi	r30, 0x37	; 55
     610:	f0 e0       	ldi	r31, 0x00	; 0
     612:	80 81       	ld	r24, Z
     614:	82 60       	ori	r24, 0x02	; 2
     616:	8c 93       	st	X, r24
     618:	a8 e3       	ldi	r26, 0x38	; 56
     61a:	b0 e0       	ldi	r27, 0x00	; 0
     61c:	e8 e3       	ldi	r30, 0x38	; 56
     61e:	f0 e0       	ldi	r31, 0x00	; 0
     620:	80 81       	ld	r24, Z
     622:	82 60       	ori	r24, 0x02	; 2
     624:	8c 93       	st	X, r24
     626:	80 91 93 00 	lds	r24, 0x0093
     62a:	80 72       	andi	r24, 0x20	; 32
     62c:	88 23       	and	r24, r24
     62e:	71 f0       	breq	.+28     	; 0x64c <updateStatusLEDs+0x98>
     630:	a7 e3       	ldi	r26, 0x37	; 55
     632:	b0 e0       	ldi	r27, 0x00	; 0
     634:	e7 e3       	ldi	r30, 0x37	; 55
     636:	f0 e0       	ldi	r31, 0x00	; 0
     638:	80 81       	ld	r24, Z
     63a:	81 60       	ori	r24, 0x01	; 1
     63c:	8c 93       	st	X, r24
     63e:	a8 e3       	ldi	r26, 0x38	; 56
     640:	b0 e0       	ldi	r27, 0x00	; 0
     642:	e8 e3       	ldi	r30, 0x38	; 56
     644:	f0 e0       	ldi	r31, 0x00	; 0
     646:	80 81       	ld	r24, Z
     648:	81 60       	ori	r24, 0x01	; 1
     64a:	8c 93       	st	X, r24
     64c:	a4 e3       	ldi	r26, 0x34	; 52
     64e:	b0 e0       	ldi	r27, 0x00	; 0
     650:	e4 e3       	ldi	r30, 0x34	; 52
     652:	f0 e0       	ldi	r31, 0x00	; 0
     654:	80 81       	ld	r24, Z
     656:	8f 78       	andi	r24, 0x8F	; 143
     658:	8c 93       	st	X, r24
     65a:	a5 e3       	ldi	r26, 0x35	; 53
     65c:	b0 e0       	ldi	r27, 0x00	; 0
     65e:	e5 e3       	ldi	r30, 0x35	; 53
     660:	f0 e0       	ldi	r31, 0x00	; 0
     662:	80 81       	ld	r24, Z
     664:	8f 78       	andi	r24, 0x8F	; 143
     666:	8c 93       	st	X, r24
     668:	a4 e3       	ldi	r26, 0x34	; 52
     66a:	b0 e0       	ldi	r27, 0x00	; 0
     66c:	e4 e3       	ldi	r30, 0x34	; 52
     66e:	f0 e0       	ldi	r31, 0x00	; 0
     670:	80 81       	ld	r24, Z
     672:	28 2f       	mov	r18, r24
     674:	80 91 93 00 	lds	r24, 0x0093
     678:	88 2f       	mov	r24, r24
     67a:	90 e0       	ldi	r25, 0x00	; 0
     67c:	82 95       	swap	r24
     67e:	92 95       	swap	r25
     680:	90 7f       	andi	r25, 0xF0	; 240
     682:	98 27       	eor	r25, r24
     684:	80 7f       	andi	r24, 0xF0	; 240
     686:	98 27       	eor	r25, r24
     688:	80 77       	andi	r24, 0x70	; 112
     68a:	82 2b       	or	r24, r18
     68c:	8c 93       	st	X, r24
     68e:	a5 e3       	ldi	r26, 0x35	; 53
     690:	b0 e0       	ldi	r27, 0x00	; 0
     692:	e5 e3       	ldi	r30, 0x35	; 53
     694:	f0 e0       	ldi	r31, 0x00	; 0
     696:	80 81       	ld	r24, Z
     698:	28 2f       	mov	r18, r24
     69a:	80 91 93 00 	lds	r24, 0x0093
     69e:	88 2f       	mov	r24, r24
     6a0:	90 e0       	ldi	r25, 0x00	; 0
     6a2:	82 95       	swap	r24
     6a4:	92 95       	swap	r25
     6a6:	90 7f       	andi	r25, 0xF0	; 240
     6a8:	98 27       	eor	r25, r24
     6aa:	80 7f       	andi	r24, 0xF0	; 240
     6ac:	98 27       	eor	r25, r24
     6ae:	80 77       	andi	r24, 0x70	; 112
     6b0:	82 2b       	or	r24, r18
     6b2:	8c 93       	st	X, r24
     6b4:	80 91 a8 00 	lds	r24, 0x00A8
     6b8:	88 23       	and	r24, r24
     6ba:	59 f4       	brne	.+22     	; 0x6d2 <updateStatusLEDs+0x11e>
     6bc:	80 91 93 00 	lds	r24, 0x0093
     6c0:	8a 83       	std	Y+2, r24	; 0x02
     6c2:	8a 81       	ldd	r24, Y+2	; 0x02
     6c4:	88 23       	and	r24, r24
     6c6:	11 f0       	breq	.+4      	; 0x6cc <updateStatusLEDs+0x118>
     6c8:	81 e0       	ldi	r24, 0x01	; 1
     6ca:	8a 83       	std	Y+2, r24	; 0x02
     6cc:	8a 81       	ldd	r24, Y+2	; 0x02
     6ce:	89 83       	std	Y+1, r24	; 0x01
     6d0:	03 c0       	rjmp	.+6      	; 0x6d8 <updateStatusLEDs+0x124>
     6d2:	80 91 a8 00 	lds	r24, 0x00A8
     6d6:	89 83       	std	Y+1, r24	; 0x01
     6d8:	89 81       	ldd	r24, Y+1	; 0x01
     6da:	80 93 a8 00 	sts	0x00A8, r24
     6de:	0f 90       	pop	r0
     6e0:	0f 90       	pop	r0
     6e2:	cf 91       	pop	r28
     6e4:	df 91       	pop	r29
     6e6:	08 95       	ret

000006e8 <setLEDs>:
     6e8:	df 93       	push	r29
     6ea:	cf 93       	push	r28
     6ec:	0f 92       	push	r0
     6ee:	cd b7       	in	r28, 0x3d	; 61
     6f0:	de b7       	in	r29, 0x3e	; 62
     6f2:	89 83       	std	Y+1, r24	; 0x01
     6f4:	89 81       	ldd	r24, Y+1	; 0x01
     6f6:	80 93 93 00 	sts	0x0093, r24
     6fa:	0e 94 da 02 	call	0x5b4	; 0x5b4 <updateStatusLEDs>
     6fe:	0f 90       	pop	r0
     700:	cf 91       	pop	r28
     702:	df 91       	pop	r29
     704:	08 95       	ret

00000706 <getBumperLeft>:
     706:	df 93       	push	r29
     708:	cf 93       	push	r28
     70a:	0f 92       	push	r0
     70c:	cd b7       	in	r28, 0x3d	; 61
     70e:	de b7       	in	r29, 0x3e	; 62
     710:	a8 e3       	ldi	r26, 0x38	; 56
     712:	b0 e0       	ldi	r27, 0x00	; 0
     714:	e8 e3       	ldi	r30, 0x38	; 56
     716:	f0 e0       	ldi	r31, 0x00	; 0
     718:	80 81       	ld	r24, Z
     71a:	8e 7f       	andi	r24, 0xFE	; 254
     71c:	8c 93       	st	X, r24
     71e:	a7 e3       	ldi	r26, 0x37	; 55
     720:	b0 e0       	ldi	r27, 0x00	; 0
     722:	e7 e3       	ldi	r30, 0x37	; 55
     724:	f0 e0       	ldi	r31, 0x00	; 0
     726:	80 81       	ld	r24, Z
     728:	8e 7f       	andi	r24, 0xFE	; 254
     72a:	8c 93       	st	X, r24
     72c:	00 00       	nop
     72e:	e6 e3       	ldi	r30, 0x36	; 54
     730:	f0 e0       	ldi	r31, 0x00	; 0
     732:	80 81       	ld	r24, Z
     734:	81 70       	andi	r24, 0x01	; 1
     736:	89 83       	std	Y+1, r24	; 0x01
     738:	80 91 93 00 	lds	r24, 0x0093
     73c:	80 72       	andi	r24, 0x20	; 32
     73e:	88 23       	and	r24, r24
     740:	71 f0       	breq	.+28     	; 0x75e <getBumperLeft+0x58>
     742:	a7 e3       	ldi	r26, 0x37	; 55
     744:	b0 e0       	ldi	r27, 0x00	; 0
     746:	e7 e3       	ldi	r30, 0x37	; 55
     748:	f0 e0       	ldi	r31, 0x00	; 0
     74a:	80 81       	ld	r24, Z
     74c:	81 60       	ori	r24, 0x01	; 1
     74e:	8c 93       	st	X, r24
     750:	a8 e3       	ldi	r26, 0x38	; 56
     752:	b0 e0       	ldi	r27, 0x00	; 0
     754:	e8 e3       	ldi	r30, 0x38	; 56
     756:	f0 e0       	ldi	r31, 0x00	; 0
     758:	80 81       	ld	r24, Z
     75a:	81 60       	ori	r24, 0x01	; 1
     75c:	8c 93       	st	X, r24
     75e:	89 81       	ldd	r24, Y+1	; 0x01
     760:	0f 90       	pop	r0
     762:	cf 91       	pop	r28
     764:	df 91       	pop	r29
     766:	08 95       	ret

00000768 <getBumperRight>:
     768:	df 93       	push	r29
     76a:	cf 93       	push	r28
     76c:	0f 92       	push	r0
     76e:	cd b7       	in	r28, 0x3d	; 61
     770:	de b7       	in	r29, 0x3e	; 62
     772:	a5 e3       	ldi	r26, 0x35	; 53
     774:	b0 e0       	ldi	r27, 0x00	; 0
     776:	e5 e3       	ldi	r30, 0x35	; 53
     778:	f0 e0       	ldi	r31, 0x00	; 0
     77a:	80 81       	ld	r24, Z
     77c:	8f 7b       	andi	r24, 0xBF	; 191
     77e:	8c 93       	st	X, r24
     780:	a4 e3       	ldi	r26, 0x34	; 52
     782:	b0 e0       	ldi	r27, 0x00	; 0
     784:	e4 e3       	ldi	r30, 0x34	; 52
     786:	f0 e0       	ldi	r31, 0x00	; 0
     788:	80 81       	ld	r24, Z
     78a:	8f 7b       	andi	r24, 0xBF	; 191
     78c:	8c 93       	st	X, r24
     78e:	00 00       	nop
     790:	e3 e3       	ldi	r30, 0x33	; 51
     792:	f0 e0       	ldi	r31, 0x00	; 0
     794:	80 81       	ld	r24, Z
     796:	80 74       	andi	r24, 0x40	; 64
     798:	89 83       	std	Y+1, r24	; 0x01
     79a:	80 91 93 00 	lds	r24, 0x0093
     79e:	84 70       	andi	r24, 0x04	; 4
     7a0:	88 23       	and	r24, r24
     7a2:	71 f0       	breq	.+28     	; 0x7c0 <getBumperRight+0x58>
     7a4:	a4 e3       	ldi	r26, 0x34	; 52
     7a6:	b0 e0       	ldi	r27, 0x00	; 0
     7a8:	e4 e3       	ldi	r30, 0x34	; 52
     7aa:	f0 e0       	ldi	r31, 0x00	; 0
     7ac:	80 81       	ld	r24, Z
     7ae:	80 64       	ori	r24, 0x40	; 64
     7b0:	8c 93       	st	X, r24
     7b2:	a5 e3       	ldi	r26, 0x35	; 53
     7b4:	b0 e0       	ldi	r27, 0x00	; 0
     7b6:	e5 e3       	ldi	r30, 0x35	; 53
     7b8:	f0 e0       	ldi	r31, 0x00	; 0
     7ba:	80 81       	ld	r24, Z
     7bc:	80 64       	ori	r24, 0x40	; 64
     7be:	8c 93       	st	X, r24
     7c0:	89 81       	ldd	r24, Y+1	; 0x01
     7c2:	0f 90       	pop	r0
     7c4:	cf 91       	pop	r28
     7c6:	df 91       	pop	r29
     7c8:	08 95       	ret

000007ca <BUMPERS_stateChanged_DUMMY>:
     7ca:	df 93       	push	r29
     7cc:	cf 93       	push	r28
     7ce:	cd b7       	in	r28, 0x3d	; 61
     7d0:	de b7       	in	r29, 0x3e	; 62
     7d2:	cf 91       	pop	r28
     7d4:	df 91       	pop	r29
     7d6:	08 95       	ret

000007d8 <BUMPERS_setStateChangedHandler>:
     7d8:	df 93       	push	r29
     7da:	cf 93       	push	r28
     7dc:	00 d0       	rcall	.+0      	; 0x7de <BUMPERS_setStateChangedHandler+0x6>
     7de:	cd b7       	in	r28, 0x3d	; 61
     7e0:	de b7       	in	r29, 0x3e	; 62
     7e2:	9a 83       	std	Y+2, r25	; 0x02
     7e4:	89 83       	std	Y+1, r24	; 0x01
     7e6:	89 81       	ldd	r24, Y+1	; 0x01
     7e8:	9a 81       	ldd	r25, Y+2	; 0x02
     7ea:	90 93 68 00 	sts	0x0068, r25
     7ee:	80 93 67 00 	sts	0x0067, r24
     7f2:	0f 90       	pop	r0
     7f4:	0f 90       	pop	r0
     7f6:	cf 91       	pop	r28
     7f8:	df 91       	pop	r29
     7fa:	08 95       	ret

000007fc <task_Bumpers>:
     7fc:	df 93       	push	r29
     7fe:	cf 93       	push	r28
     800:	00 d0       	rcall	.+0      	; 0x802 <task_Bumpers+0x6>
     802:	cd b7       	in	r28, 0x3d	; 61
     804:	de b7       	in	r29, 0x3e	; 62
     806:	80 91 e0 00 	lds	r24, 0x00E0
     80a:	83 33       	cpi	r24, 0x33	; 51
     80c:	e8 f0       	brcs	.+58     	; 0x848 <task_Bumpers+0x4c>
     80e:	0e 94 83 03 	call	0x706	; 0x706 <getBumperLeft>
     812:	8a 83       	std	Y+2, r24	; 0x02
     814:	0e 94 b4 03 	call	0x768	; 0x768 <getBumperRight>
     818:	89 83       	std	Y+1, r24	; 0x01
     81a:	90 91 94 00 	lds	r25, 0x0094
     81e:	8a 81       	ldd	r24, Y+2	; 0x02
     820:	98 17       	cp	r25, r24
     822:	29 f4       	brne	.+10     	; 0x82e <task_Bumpers+0x32>
     824:	90 91 f1 00 	lds	r25, 0x00F1
     828:	89 81       	ldd	r24, Y+1	; 0x01
     82a:	98 17       	cp	r25, r24
     82c:	59 f0       	breq	.+22     	; 0x844 <task_Bumpers+0x48>
     82e:	8a 81       	ldd	r24, Y+2	; 0x02
     830:	80 93 94 00 	sts	0x0094, r24
     834:	89 81       	ldd	r24, Y+1	; 0x01
     836:	80 93 f1 00 	sts	0x00F1, r24
     83a:	e0 91 67 00 	lds	r30, 0x0067
     83e:	f0 91 68 00 	lds	r31, 0x0068
     842:	09 95       	icall
     844:	10 92 e0 00 	sts	0x00E0, r1
     848:	0f 90       	pop	r0
     84a:	0f 90       	pop	r0
     84c:	cf 91       	pop	r28
     84e:	df 91       	pop	r29
     850:	08 95       	ret

00000852 <readADC>:
     852:	df 93       	push	r29
     854:	cf 93       	push	r28
     856:	00 d0       	rcall	.+0      	; 0x858 <readADC+0x6>
     858:	0f 92       	push	r0
     85a:	cd b7       	in	r28, 0x3d	; 61
     85c:	de b7       	in	r29, 0x3e	; 62
     85e:	89 83       	std	Y+1, r24	; 0x01
     860:	e6 e2       	ldi	r30, 0x26	; 38
     862:	f0 e0       	ldi	r31, 0x00	; 0
     864:	80 81       	ld	r24, Z
     866:	88 2f       	mov	r24, r24
     868:	90 e0       	ldi	r25, 0x00	; 0
     86a:	80 74       	andi	r24, 0x40	; 64
     86c:	90 70       	andi	r25, 0x00	; 0
     86e:	00 97       	sbiw	r24, 0x00	; 0
     870:	19 f0       	breq	.+6      	; 0x878 <__stack+0x19>
     872:	1b 82       	std	Y+3, r1	; 0x03
     874:	1a 82       	std	Y+2, r1	; 0x02
     876:	1f c0       	rjmp	.+62     	; 0x8b6 <__stack+0x57>
     878:	e7 e2       	ldi	r30, 0x27	; 39
     87a:	f0 e0       	ldi	r31, 0x00	; 0
     87c:	89 81       	ldd	r24, Y+1	; 0x01
     87e:	80 64       	ori	r24, 0x40	; 64
     880:	80 83       	st	Z, r24
     882:	e6 e2       	ldi	r30, 0x26	; 38
     884:	f0 e0       	ldi	r31, 0x00	; 0
     886:	86 ed       	ldi	r24, 0xD6	; 214
     888:	80 83       	st	Z, r24
     88a:	e6 e2       	ldi	r30, 0x26	; 38
     88c:	f0 e0       	ldi	r31, 0x00	; 0
     88e:	80 81       	ld	r24, Z
     890:	88 2f       	mov	r24, r24
     892:	90 e0       	ldi	r25, 0x00	; 0
     894:	80 74       	andi	r24, 0x40	; 64
     896:	90 70       	andi	r25, 0x00	; 0
     898:	00 97       	sbiw	r24, 0x00	; 0
     89a:	b9 f7       	brne	.-18     	; 0x88a <__stack+0x2b>
     89c:	a6 e2       	ldi	r26, 0x26	; 38
     89e:	b0 e0       	ldi	r27, 0x00	; 0
     8a0:	e6 e2       	ldi	r30, 0x26	; 38
     8a2:	f0 e0       	ldi	r31, 0x00	; 0
     8a4:	80 81       	ld	r24, Z
     8a6:	80 61       	ori	r24, 0x10	; 16
     8a8:	8c 93       	st	X, r24
     8aa:	e4 e2       	ldi	r30, 0x24	; 36
     8ac:	f0 e0       	ldi	r31, 0x00	; 0
     8ae:	80 81       	ld	r24, Z
     8b0:	91 81       	ldd	r25, Z+1	; 0x01
     8b2:	9b 83       	std	Y+3, r25	; 0x03
     8b4:	8a 83       	std	Y+2, r24	; 0x02
     8b6:	8a 81       	ldd	r24, Y+2	; 0x02
     8b8:	9b 81       	ldd	r25, Y+3	; 0x03
     8ba:	0f 90       	pop	r0
     8bc:	0f 90       	pop	r0
     8be:	0f 90       	pop	r0
     8c0:	cf 91       	pop	r28
     8c2:	df 91       	pop	r29
     8c4:	08 95       	ret

000008c6 <startADC>:
     8c6:	df 93       	push	r29
     8c8:	cf 93       	push	r28
     8ca:	0f 92       	push	r0
     8cc:	cd b7       	in	r28, 0x3d	; 61
     8ce:	de b7       	in	r29, 0x3e	; 62
     8d0:	89 83       	std	Y+1, r24	; 0x01
     8d2:	e7 e2       	ldi	r30, 0x27	; 39
     8d4:	f0 e0       	ldi	r31, 0x00	; 0
     8d6:	89 81       	ldd	r24, Y+1	; 0x01
     8d8:	80 64       	ori	r24, 0x40	; 64
     8da:	80 83       	st	Z, r24
     8dc:	e6 e2       	ldi	r30, 0x26	; 38
     8de:	f0 e0       	ldi	r31, 0x00	; 0
     8e0:	86 ed       	ldi	r24, 0xD6	; 214
     8e2:	80 83       	st	Z, r24
     8e4:	0f 90       	pop	r0
     8e6:	cf 91       	pop	r28
     8e8:	df 91       	pop	r29
     8ea:	08 95       	ret

000008ec <task_ADC>:
     8ec:	df 93       	push	r29
     8ee:	cf 93       	push	r28
     8f0:	00 d0       	rcall	.+0      	; 0x8f2 <task_ADC+0x6>
     8f2:	cd b7       	in	r28, 0x3d	; 61
     8f4:	de b7       	in	r29, 0x3e	; 62
     8f6:	e6 e2       	ldi	r30, 0x26	; 38
     8f8:	f0 e0       	ldi	r31, 0x00	; 0
     8fa:	80 81       	ld	r24, Z
     8fc:	88 2f       	mov	r24, r24
     8fe:	90 e0       	ldi	r25, 0x00	; 0
     900:	80 74       	andi	r24, 0x40	; 64
     902:	90 70       	andi	r25, 0x00	; 0
     904:	00 97       	sbiw	r24, 0x00	; 0
     906:	09 f0       	breq	.+2      	; 0x90a <task_ADC+0x1e>
     908:	91 c0       	rjmp	.+290    	; 0xa2c <task_ADC+0x140>
     90a:	80 91 75 00 	lds	r24, 0x0075
     90e:	28 2f       	mov	r18, r24
     910:	30 e0       	ldi	r19, 0x00	; 0
     912:	3a 83       	std	Y+2, r19	; 0x02
     914:	29 83       	std	Y+1, r18	; 0x01
     916:	89 81       	ldd	r24, Y+1	; 0x01
     918:	9a 81       	ldd	r25, Y+2	; 0x02
     91a:	83 30       	cpi	r24, 0x03	; 3
     91c:	91 05       	cpc	r25, r1
     91e:	09 f4       	brne	.+2      	; 0x922 <task_ADC+0x36>
     920:	4a c0       	rjmp	.+148    	; 0x9b6 <task_ADC+0xca>
     922:	29 81       	ldd	r18, Y+1	; 0x01
     924:	3a 81       	ldd	r19, Y+2	; 0x02
     926:	24 30       	cpi	r18, 0x04	; 4
     928:	31 05       	cpc	r19, r1
     92a:	7c f4       	brge	.+30     	; 0x94a <task_ADC+0x5e>
     92c:	89 81       	ldd	r24, Y+1	; 0x01
     92e:	9a 81       	ldd	r25, Y+2	; 0x02
     930:	81 30       	cpi	r24, 0x01	; 1
     932:	91 05       	cpc	r25, r1
     934:	41 f1       	breq	.+80     	; 0x986 <task_ADC+0x9a>
     936:	29 81       	ldd	r18, Y+1	; 0x01
     938:	3a 81       	ldd	r19, Y+2	; 0x02
     93a:	22 30       	cpi	r18, 0x02	; 2
     93c:	31 05       	cpc	r19, r1
     93e:	7c f5       	brge	.+94     	; 0x99e <task_ADC+0xb2>
     940:	89 81       	ldd	r24, Y+1	; 0x01
     942:	9a 81       	ldd	r25, Y+2	; 0x02
     944:	00 97       	sbiw	r24, 0x00	; 0
     946:	99 f0       	breq	.+38     	; 0x96e <task_ADC+0x82>
     948:	65 c0       	rjmp	.+202    	; 0xa14 <task_ADC+0x128>
     94a:	29 81       	ldd	r18, Y+1	; 0x01
     94c:	3a 81       	ldd	r19, Y+2	; 0x02
     94e:	25 30       	cpi	r18, 0x05	; 5
     950:	31 05       	cpc	r19, r1
     952:	09 f4       	brne	.+2      	; 0x956 <task_ADC+0x6a>
     954:	48 c0       	rjmp	.+144    	; 0x9e6 <task_ADC+0xfa>
     956:	89 81       	ldd	r24, Y+1	; 0x01
     958:	9a 81       	ldd	r25, Y+2	; 0x02
     95a:	85 30       	cpi	r24, 0x05	; 5
     95c:	91 05       	cpc	r25, r1
     95e:	bc f1       	brlt	.+110    	; 0x9ce <task_ADC+0xe2>
     960:	29 81       	ldd	r18, Y+1	; 0x01
     962:	3a 81       	ldd	r19, Y+2	; 0x02
     964:	26 30       	cpi	r18, 0x06	; 6
     966:	31 05       	cpc	r19, r1
     968:	09 f4       	brne	.+2      	; 0x96c <task_ADC+0x80>
     96a:	49 c0       	rjmp	.+146    	; 0x9fe <task_ADC+0x112>
     96c:	53 c0       	rjmp	.+166    	; 0xa14 <task_ADC+0x128>
     96e:	e4 e2       	ldi	r30, 0x24	; 36
     970:	f0 e0       	ldi	r31, 0x00	; 0
     972:	80 81       	ld	r24, Z
     974:	91 81       	ldd	r25, Z+1	; 0x01
     976:	90 93 f5 00 	sts	0x00F5, r25
     97a:	80 93 f4 00 	sts	0x00F4, r24
     97e:	86 e0       	ldi	r24, 0x06	; 6
     980:	0e 94 63 04 	call	0x8c6	; 0x8c6 <startADC>
     984:	47 c0       	rjmp	.+142    	; 0xa14 <task_ADC+0x128>
     986:	e4 e2       	ldi	r30, 0x24	; 36
     988:	f0 e0       	ldi	r31, 0x00	; 0
     98a:	80 81       	ld	r24, Z
     98c:	91 81       	ldd	r25, Z+1	; 0x01
     98e:	90 93 fa 00 	sts	0x00FA, r25
     992:	80 93 f9 00 	sts	0x00F9, r24
     996:	85 e0       	ldi	r24, 0x05	; 5
     998:	0e 94 63 04 	call	0x8c6	; 0x8c6 <startADC>
     99c:	3b c0       	rjmp	.+118    	; 0xa14 <task_ADC+0x128>
     99e:	e4 e2       	ldi	r30, 0x24	; 36
     9a0:	f0 e0       	ldi	r31, 0x00	; 0
     9a2:	80 81       	ld	r24, Z
     9a4:	91 81       	ldd	r25, Z+1	; 0x01
     9a6:	90 93 eb 00 	sts	0x00EB, r25
     9aa:	80 93 ea 00 	sts	0x00EA, r24
     9ae:	83 e0       	ldi	r24, 0x03	; 3
     9b0:	0e 94 63 04 	call	0x8c6	; 0x8c6 <startADC>
     9b4:	2f c0       	rjmp	.+94     	; 0xa14 <task_ADC+0x128>
     9b6:	e4 e2       	ldi	r30, 0x24	; 36
     9b8:	f0 e0       	ldi	r31, 0x00	; 0
     9ba:	80 81       	ld	r24, Z
     9bc:	91 81       	ldd	r25, Z+1	; 0x01
     9be:	90 93 b4 00 	sts	0x00B4, r25
     9c2:	80 93 b3 00 	sts	0x00B3, r24
     9c6:	82 e0       	ldi	r24, 0x02	; 2
     9c8:	0e 94 63 04 	call	0x8c6	; 0x8c6 <startADC>
     9cc:	23 c0       	rjmp	.+70     	; 0xa14 <task_ADC+0x128>
     9ce:	e4 e2       	ldi	r30, 0x24	; 36
     9d0:	f0 e0       	ldi	r31, 0x00	; 0
     9d2:	80 81       	ld	r24, Z
     9d4:	91 81       	ldd	r25, Z+1	; 0x01
     9d6:	90 93 da 00 	sts	0x00DA, r25
     9da:	80 93 d9 00 	sts	0x00D9, r24
     9de:	80 e0       	ldi	r24, 0x00	; 0
     9e0:	0e 94 63 04 	call	0x8c6	; 0x8c6 <startADC>
     9e4:	17 c0       	rjmp	.+46     	; 0xa14 <task_ADC+0x128>
     9e6:	e4 e2       	ldi	r30, 0x24	; 36
     9e8:	f0 e0       	ldi	r31, 0x00	; 0
     9ea:	80 81       	ld	r24, Z
     9ec:	91 81       	ldd	r25, Z+1	; 0x01
     9ee:	90 93 e8 00 	sts	0x00E8, r25
     9f2:	80 93 e7 00 	sts	0x00E7, r24
     9f6:	81 e0       	ldi	r24, 0x01	; 1
     9f8:	0e 94 63 04 	call	0x8c6	; 0x8c6 <startADC>
     9fc:	0b c0       	rjmp	.+22     	; 0xa14 <task_ADC+0x128>
     9fe:	e4 e2       	ldi	r30, 0x24	; 36
     a00:	f0 e0       	ldi	r31, 0x00	; 0
     a02:	80 81       	ld	r24, Z
     a04:	91 81       	ldd	r25, Z+1	; 0x01
     a06:	90 93 b2 00 	sts	0x00B2, r25
     a0a:	80 93 b1 00 	sts	0x00B1, r24
     a0e:	87 e0       	ldi	r24, 0x07	; 7
     a10:	0e 94 63 04 	call	0x8c6	; 0x8c6 <startADC>
     a14:	80 91 75 00 	lds	r24, 0x0075
     a18:	86 30       	cpi	r24, 0x06	; 6
     a1a:	19 f4       	brne	.+6      	; 0xa22 <task_ADC+0x136>
     a1c:	10 92 75 00 	sts	0x0075, r1
     a20:	05 c0       	rjmp	.+10     	; 0xa2c <task_ADC+0x140>
     a22:	80 91 75 00 	lds	r24, 0x0075
     a26:	8f 5f       	subi	r24, 0xFF	; 255
     a28:	80 93 75 00 	sts	0x0075, r24
     a2c:	0f 90       	pop	r0
     a2e:	0f 90       	pop	r0
     a30:	cf 91       	pop	r28
     a32:	df 91       	pop	r29
     a34:	08 95       	ret

00000a36 <__vector_1>:
     a36:	1f 92       	push	r1
     a38:	0f 92       	push	r0
     a3a:	0f b6       	in	r0, 0x3f	; 63
     a3c:	0f 92       	push	r0
     a3e:	11 24       	eor	r1, r1
     a40:	8f 93       	push	r24
     a42:	9f 93       	push	r25
     a44:	df 93       	push	r29
     a46:	cf 93       	push	r28
     a48:	cd b7       	in	r28, 0x3d	; 61
     a4a:	de b7       	in	r29, 0x3e	; 62
     a4c:	80 91 ef 00 	lds	r24, 0x00EF
     a50:	90 91 f0 00 	lds	r25, 0x00F0
     a54:	01 96       	adiw	r24, 0x01	; 1
     a56:	90 93 f0 00 	sts	0x00F0, r25
     a5a:	80 93 ef 00 	sts	0x00EF, r24
     a5e:	80 91 e5 00 	lds	r24, 0x00E5
     a62:	90 91 e6 00 	lds	r25, 0x00E6
     a66:	01 96       	adiw	r24, 0x01	; 1
     a68:	90 93 e6 00 	sts	0x00E6, r25
     a6c:	80 93 e5 00 	sts	0x00E5, r24
     a70:	cf 91       	pop	r28
     a72:	df 91       	pop	r29
     a74:	9f 91       	pop	r25
     a76:	8f 91       	pop	r24
     a78:	0f 90       	pop	r0
     a7a:	0f be       	out	0x3f, r0	; 63
     a7c:	0f 90       	pop	r0
     a7e:	1f 90       	pop	r1
     a80:	18 95       	reti

00000a82 <__vector_2>:
     a82:	1f 92       	push	r1
     a84:	0f 92       	push	r0
     a86:	0f b6       	in	r0, 0x3f	; 63
     a88:	0f 92       	push	r0
     a8a:	11 24       	eor	r1, r1
     a8c:	8f 93       	push	r24
     a8e:	9f 93       	push	r25
     a90:	df 93       	push	r29
     a92:	cf 93       	push	r28
     a94:	cd b7       	in	r28, 0x3d	; 61
     a96:	de b7       	in	r29, 0x3e	; 62
     a98:	80 91 e1 00 	lds	r24, 0x00E1
     a9c:	90 91 e2 00 	lds	r25, 0x00E2
     aa0:	01 96       	adiw	r24, 0x01	; 1
     aa2:	90 93 e2 00 	sts	0x00E2, r25
     aa6:	80 93 e1 00 	sts	0x00E1, r24
     aaa:	80 91 bb 00 	lds	r24, 0x00BB
     aae:	90 91 bc 00 	lds	r25, 0x00BC
     ab2:	01 96       	adiw	r24, 0x01	; 1
     ab4:	90 93 bc 00 	sts	0x00BC, r25
     ab8:	80 93 bb 00 	sts	0x00BB, r24
     abc:	cf 91       	pop	r28
     abe:	df 91       	pop	r29
     ac0:	9f 91       	pop	r25
     ac2:	8f 91       	pop	r24
     ac4:	0f 90       	pop	r0
     ac6:	0f be       	out	0x3f, r0	; 63
     ac8:	0f 90       	pop	r0
     aca:	1f 90       	pop	r1
     acc:	18 95       	reti

00000ace <MOTIONCONTROL_stateChanged_DUMMY>:
     ace:	df 93       	push	r29
     ad0:	cf 93       	push	r28
     ad2:	cd b7       	in	r28, 0x3d	; 61
     ad4:	de b7       	in	r29, 0x3e	; 62
     ad6:	cf 91       	pop	r28
     ad8:	df 91       	pop	r29
     ada:	08 95       	ret

00000adc <MOTIONCONTROL_setStateChangedHandler>:
     adc:	df 93       	push	r29
     ade:	cf 93       	push	r28
     ae0:	00 d0       	rcall	.+0      	; 0xae2 <MOTIONCONTROL_setStateChangedHandler+0x6>
     ae2:	cd b7       	in	r28, 0x3d	; 61
     ae4:	de b7       	in	r29, 0x3e	; 62
     ae6:	9a 83       	std	Y+2, r25	; 0x02
     ae8:	89 83       	std	Y+1, r24	; 0x01
     aea:	89 81       	ldd	r24, Y+1	; 0x01
     aec:	9a 81       	ldd	r25, Y+2	; 0x02
     aee:	90 93 6a 00 	sts	0x006A, r25
     af2:	80 93 69 00 	sts	0x0069, r24
     af6:	0f 90       	pop	r0
     af8:	0f 90       	pop	r0
     afa:	cf 91       	pop	r28
     afc:	df 91       	pop	r29
     afe:	08 95       	ret

00000b00 <emergencyShutdown>:
     b00:	df 93       	push	r29
     b02:	cf 93       	push	r28
     b04:	00 d0       	rcall	.+0      	; 0xb06 <emergencyShutdown+0x6>
     b06:	cd b7       	in	r28, 0x3d	; 61
     b08:	de b7       	in	r29, 0x3e	; 62
     b0a:	8a 83       	std	Y+2, r24	; 0x02
     b0c:	f8 94       	cli
     b0e:	a2 e3       	ldi	r26, 0x32	; 50
     b10:	b0 e0       	ldi	r27, 0x00	; 0
     b12:	e2 e3       	ldi	r30, 0x32	; 50
     b14:	f0 e0       	ldi	r31, 0x00	; 0
     b16:	80 81       	ld	r24, Z
     b18:	8f 77       	andi	r24, 0x7F	; 127
     b1a:	8c 93       	st	X, r24
     b1c:	0e 94 8d 0f 	call	0x1f1a	; 0x1f1a <setACSPwrOff>
     b20:	10 92 aa 00 	sts	0x00AA, r1
     b24:	10 92 a9 00 	sts	0x00A9, r1
     b28:	10 92 ba 00 	sts	0x00BA, r1
     b2c:	10 92 b9 00 	sts	0x00B9, r1
     b30:	10 92 a4 00 	sts	0x00A4, r1
     b34:	10 92 a3 00 	sts	0x00A3, r1
     b38:	10 92 df 00 	sts	0x00DF, r1
     b3c:	10 92 de 00 	sts	0x00DE, r1
     b40:	10 92 f8 00 	sts	0x00F8, r1
     b44:	10 92 d6 00 	sts	0x00D6, r1
     b48:	ea e4       	ldi	r30, 0x4A	; 74
     b4a:	f0 e0       	ldi	r31, 0x00	; 0
     b4c:	10 82       	st	Z, r1
     b4e:	e8 e4       	ldi	r30, 0x48	; 72
     b50:	f0 e0       	ldi	r31, 0x00	; 0
     b52:	10 82       	st	Z, r1
     b54:	ef e4       	ldi	r30, 0x4F	; 79
     b56:	f0 e0       	ldi	r31, 0x00	; 0
     b58:	10 82       	st	Z, r1
     b5a:	0e 94 3c 10 	call	0x2078	; 0x2078 <powerOFF>
     b5e:	80 ef       	ldi	r24, 0xF0	; 240
     b60:	91 e0       	ldi	r25, 0x01	; 1
     b62:	0e 94 6f 15 	call	0x2ade	; 0x2ade <writeNStringP>
     b66:	85 eb       	ldi	r24, 0xB5	; 181
     b68:	91 e0       	ldi	r25, 0x01	; 1
     b6a:	0e 94 6f 15 	call	0x2ade	; 0x2ade <writeNStringP>
     b6e:	8a 81       	ldd	r24, Y+2	; 0x02
     b70:	81 30       	cpi	r24, 0x01	; 1
     b72:	19 f0       	breq	.+6      	; 0xb7a <emergencyShutdown+0x7a>
     b74:	8a 81       	ldd	r24, Y+2	; 0x02
     b76:	82 30       	cpi	r24, 0x02	; 2
     b78:	e9 f4       	brne	.+58     	; 0xbb4 <emergencyShutdown+0xb4>
     b7a:	8b e8       	ldi	r24, 0x8B	; 139
     b7c:	91 e0       	ldi	r25, 0x01	; 1
     b7e:	0e 94 6f 15 	call	0x2ade	; 0x2ade <writeNStringP>
     b82:	89 e7       	ldi	r24, 0x79	; 121
     b84:	91 e0       	ldi	r25, 0x01	; 1
     b86:	0e 94 6f 15 	call	0x2ade	; 0x2ade <writeNStringP>
     b8a:	8a 81       	ldd	r24, Y+2	; 0x02
     b8c:	81 30       	cpi	r24, 0x01	; 1
     b8e:	29 f4       	brne	.+10     	; 0xb9a <emergencyShutdown+0x9a>
     b90:	84 e7       	ldi	r24, 0x74	; 116
     b92:	91 e0       	ldi	r25, 0x01	; 1
     b94:	0e 94 6f 15 	call	0x2ade	; 0x2ade <writeNStringP>
     b98:	04 c0       	rjmp	.+8      	; 0xba2 <emergencyShutdown+0xa2>
     b9a:	8e e6       	ldi	r24, 0x6E	; 110
     b9c:	91 e0       	ldi	r25, 0x01	; 1
     b9e:	0e 94 6f 15 	call	0x2ade	; 0x2ade <writeNStringP>
     ba2:	8d e3       	ldi	r24, 0x3D	; 61
     ba4:	91 e0       	ldi	r25, 0x01	; 1
     ba6:	0e 94 6f 15 	call	0x2ade	; 0x2ade <writeNStringP>
     baa:	8e ef       	ldi	r24, 0xFE	; 254
     bac:	90 e0       	ldi	r25, 0x00	; 0
     bae:	0e 94 6f 15 	call	0x2ade	; 0x2ade <writeNStringP>
     bb2:	0f c0       	rjmp	.+30     	; 0xbd2 <emergencyShutdown+0xd2>
     bb4:	8a 81       	ldd	r24, Y+2	; 0x02
     bb6:	83 30       	cpi	r24, 0x03	; 3
     bb8:	61 f4       	brne	.+24     	; 0xbd2 <emergencyShutdown+0xd2>
     bba:	81 ee       	ldi	r24, 0xE1	; 225
     bbc:	90 e0       	ldi	r25, 0x00	; 0
     bbe:	0e 94 6f 15 	call	0x2ade	; 0x2ade <writeNStringP>
     bc2:	81 eb       	ldi	r24, 0xB1	; 177
     bc4:	90 e0       	ldi	r25, 0x00	; 0
     bc6:	0e 94 6f 15 	call	0x2ade	; 0x2ade <writeNStringP>
     bca:	8a e7       	ldi	r24, 0x7A	; 122
     bcc:	90 e0       	ldi	r25, 0x00	; 0
     bce:	0e 94 6f 15 	call	0x2ade	; 0x2ade <writeNStringP>
     bd2:	84 e5       	ldi	r24, 0x54	; 84
     bd4:	90 e0       	ldi	r25, 0x00	; 0
     bd6:	0e 94 6f 15 	call	0x2ade	; 0x2ade <writeNStringP>
     bda:	86 e3       	ldi	r24, 0x36	; 54
     bdc:	0e 94 74 03 	call	0x6e8	; 0x6e8 <setLEDs>
     be0:	8a e0       	ldi	r24, 0x0A	; 10
     be2:	89 83       	std	Y+1, r24	; 0x01
     be4:	07 c0       	rjmp	.+14     	; 0xbf4 <emergencyShutdown+0xf4>
     be6:	80 e0       	ldi	r24, 0x00	; 0
     be8:	90 e8       	ldi	r25, 0x80	; 128
     bea:	0e 94 49 13 	call	0x2692	; 0x2692 <delayCycles>
     bee:	89 81       	ldd	r24, Y+1	; 0x01
     bf0:	81 50       	subi	r24, 0x01	; 1
     bf2:	89 83       	std	Y+1, r24	; 0x01
     bf4:	89 81       	ldd	r24, Y+1	; 0x01
     bf6:	88 23       	and	r24, r24
     bf8:	b1 f7       	brne	.-20     	; 0xbe6 <emergencyShutdown+0xe6>
     bfa:	80 e0       	ldi	r24, 0x00	; 0
     bfc:	0e 94 74 03 	call	0x6e8	; 0x6e8 <setLEDs>
     c00:	8a e0       	ldi	r24, 0x0A	; 10
     c02:	89 83       	std	Y+1, r24	; 0x01
     c04:	07 c0       	rjmp	.+14     	; 0xc14 <emergencyShutdown+0x114>
     c06:	8f ef       	ldi	r24, 0xFF	; 255
     c08:	9f ef       	ldi	r25, 0xFF	; 255
     c0a:	0e 94 49 13 	call	0x2692	; 0x2692 <delayCycles>
     c0e:	89 81       	ldd	r24, Y+1	; 0x01
     c10:	81 50       	subi	r24, 0x01	; 1
     c12:	89 83       	std	Y+1, r24	; 0x01
     c14:	89 81       	ldd	r24, Y+1	; 0x01
     c16:	88 23       	and	r24, r24
     c18:	b1 f7       	brne	.-20     	; 0xc06 <emergencyShutdown+0x106>
     c1a:	df cf       	rjmp	.-66     	; 0xbda <emergencyShutdown+0xda>

00000c1c <task_motionControl>:
     c1c:	df 93       	push	r29
     c1e:	cf 93       	push	r28
     c20:	cd b7       	in	r28, 0x3d	; 61
     c22:	de b7       	in	r29, 0x3e	; 62
     c24:	28 97       	sbiw	r28, 0x08	; 8
     c26:	0f b6       	in	r0, 0x3f	; 63
     c28:	f8 94       	cli
     c2a:	de bf       	out	0x3e, r29	; 62
     c2c:	0f be       	out	0x3f, r0	; 63
     c2e:	cd bf       	out	0x3d, r28	; 61
     c30:	80 91 d5 00 	lds	r24, 0x00D5
     c34:	82 33       	cpi	r24, 0x32	; 50
     c36:	08 f4       	brcc	.+2      	; 0xc3a <task_motionControl+0x1e>
     c38:	7e c0       	rjmp	.+252    	; 0xd36 <task_motionControl+0x11a>
     c3a:	10 92 d5 00 	sts	0x00D5, r1
     c3e:	80 91 d2 00 	lds	r24, 0x00D2
     c42:	88 23       	and	r24, r24
     c44:	09 f0       	breq	.+2      	; 0xc48 <task_motionControl+0x2c>
     c46:	43 c0       	rjmp	.+134    	; 0xcce <task_motionControl+0xb2>
     c48:	80 91 f9 00 	lds	r24, 0x00F9
     c4c:	90 91 fa 00 	lds	r25, 0x00FA
     c50:	23 e0       	ldi	r18, 0x03	; 3
     c52:	83 30       	cpi	r24, 0x03	; 3
     c54:	92 07       	cpc	r25, r18
     c56:	40 f4       	brcc	.+16     	; 0xc68 <task_motionControl+0x4c>
     c58:	80 91 ea 00 	lds	r24, 0x00EA
     c5c:	90 91 eb 00 	lds	r25, 0x00EB
     c60:	43 e0       	ldi	r20, 0x03	; 3
     c62:	83 30       	cpi	r24, 0x03	; 3
     c64:	94 07       	cpc	r25, r20
     c66:	f0 f0       	brcs	.+60     	; 0xca4 <task_motionControl+0x88>
     c68:	80 91 d4 00 	lds	r24, 0x00D4
     c6c:	8f 5f       	subi	r24, 0xFF	; 255
     c6e:	80 93 d4 00 	sts	0x00D4, r24
     c72:	8a e0       	ldi	r24, 0x0A	; 10
     c74:	80 93 d2 00 	sts	0x00D2, r24
     c78:	10 92 aa 00 	sts	0x00AA, r1
     c7c:	10 92 a9 00 	sts	0x00A9, r1
     c80:	10 92 ba 00 	sts	0x00BA, r1
     c84:	10 92 b9 00 	sts	0x00B9, r1
     c88:	10 92 a4 00 	sts	0x00A4, r1
     c8c:	10 92 a3 00 	sts	0x00A3, r1
     c90:	10 92 df 00 	sts	0x00DF, r1
     c94:	10 92 de 00 	sts	0x00DE, r1
     c98:	80 91 90 00 	lds	r24, 0x0090
     c9c:	84 60       	ori	r24, 0x04	; 4
     c9e:	80 93 90 00 	sts	0x0090, r24
     ca2:	59 c2       	rjmp	.+1202   	; 0x1156 <task_motionControl+0x53a>
     ca4:	80 91 90 00 	lds	r24, 0x0090
     ca8:	8b 7f       	andi	r24, 0xFB	; 251
     caa:	80 93 90 00 	sts	0x0090, r24
     cae:	80 91 9f 00 	lds	r24, 0x009F
     cb2:	85 36       	cpi	r24, 0x65	; 101
     cb4:	28 f0       	brcs	.+10     	; 0xcc0 <task_motionControl+0xa4>
     cb6:	10 92 d4 00 	sts	0x00D4, r1
     cba:	10 92 9f 00 	sts	0x009F, r1
     cbe:	07 c0       	rjmp	.+14     	; 0xcce <task_motionControl+0xb2>
     cc0:	80 91 d4 00 	lds	r24, 0x00D4
     cc4:	83 30       	cpi	r24, 0x03	; 3
     cc6:	18 f0       	brcs	.+6      	; 0xcce <task_motionControl+0xb2>
     cc8:	83 e0       	ldi	r24, 0x03	; 3
     cca:	0e 94 80 05 	call	0xb00	; 0xb00 <emergencyShutdown>
     cce:	80 91 f9 00 	lds	r24, 0x00F9
     cd2:	90 91 fa 00 	lds	r25, 0x00FA
     cd6:	86 39       	cpi	r24, 0x96	; 150
     cd8:	91 05       	cpc	r25, r1
     cda:	98 f4       	brcc	.+38     	; 0xd02 <task_motionControl+0xe6>
     cdc:	80 91 ab 00 	lds	r24, 0x00AB
     ce0:	90 91 ac 00 	lds	r25, 0x00AC
     ce4:	00 97       	sbiw	r24, 0x00	; 0
     ce6:	69 f4       	brne	.+26     	; 0xd02 <task_motionControl+0xe6>
     ce8:	80 91 99 00 	lds	r24, 0x0099
     cec:	90 91 9a 00 	lds	r25, 0x009A
     cf0:	00 97       	sbiw	r24, 0x00	; 0
     cf2:	39 f0       	breq	.+14     	; 0xd02 <task_motionControl+0xe6>
     cf4:	80 91 f8 00 	lds	r24, 0x00F8
     cf8:	87 39       	cpi	r24, 0x97	; 151
     cfa:	18 f0       	brcs	.+6      	; 0xd02 <task_motionControl+0xe6>
     cfc:	81 e0       	ldi	r24, 0x01	; 1
     cfe:	0e 94 80 05 	call	0xb00	; 0xb00 <emergencyShutdown>
     d02:	80 91 ea 00 	lds	r24, 0x00EA
     d06:	90 91 eb 00 	lds	r25, 0x00EB
     d0a:	86 39       	cpi	r24, 0x96	; 150
     d0c:	91 05       	cpc	r25, r1
     d0e:	98 f4       	brcc	.+38     	; 0xd36 <task_motionControl+0x11a>
     d10:	80 91 ed 00 	lds	r24, 0x00ED
     d14:	90 91 ee 00 	lds	r25, 0x00EE
     d18:	00 97       	sbiw	r24, 0x00	; 0
     d1a:	69 f4       	brne	.+26     	; 0xd36 <task_motionControl+0x11a>
     d1c:	80 91 97 00 	lds	r24, 0x0097
     d20:	90 91 98 00 	lds	r25, 0x0098
     d24:	00 97       	sbiw	r24, 0x00	; 0
     d26:	39 f0       	breq	.+14     	; 0xd36 <task_motionControl+0x11a>
     d28:	80 91 d6 00 	lds	r24, 0x00D6
     d2c:	87 39       	cpi	r24, 0x97	; 151
     d2e:	18 f0       	brcs	.+6      	; 0xd36 <task_motionControl+0x11a>
     d30:	82 e0       	ldi	r24, 0x02	; 2
     d32:	0e 94 80 05 	call	0xb00	; 0xb00 <emergencyShutdown>
     d36:	80 91 a7 00 	lds	r24, 0x00A7
     d3a:	88 23       	and	r24, r24
     d3c:	09 f4       	brne	.+2      	; 0xd40 <task_motionControl+0x124>
     d3e:	fc c1       	rjmp	.+1016   	; 0x1138 <task_motionControl+0x51c>
     d40:	80 91 d2 00 	lds	r24, 0x00D2
     d44:	88 23       	and	r24, r24
     d46:	09 f0       	breq	.+2      	; 0xd4a <task_motionControl+0x12e>
     d48:	f0 c1       	rjmp	.+992    	; 0x112a <task_motionControl+0x50e>
     d4a:	80 91 d4 00 	lds	r24, 0x00D4
     d4e:	88 23       	and	r24, r24
     d50:	31 f0       	breq	.+12     	; 0xd5e <task_motionControl+0x142>
     d52:	80 91 9f 00 	lds	r24, 0x009F
     d56:	8f 5f       	subi	r24, 0xFF	; 255
     d58:	80 93 9f 00 	sts	0x009F, r24
     d5c:	02 c0       	rjmp	.+4      	; 0xd62 <task_motionControl+0x146>
     d5e:	10 92 9f 00 	sts	0x009F, r1
     d62:	80 91 90 00 	lds	r24, 0x0090
     d66:	82 70       	andi	r24, 0x02	; 2
     d68:	88 23       	and	r24, r24
     d6a:	09 f4       	brne	.+2      	; 0xd6e <task_motionControl+0x152>
     d6c:	3f c0       	rjmp	.+126    	; 0xdec <task_motionControl+0x1d0>
     d6e:	20 91 ef 00 	lds	r18, 0x00EF
     d72:	30 91 f0 00 	lds	r19, 0x00F0
     d76:	80 91 95 00 	lds	r24, 0x0095
     d7a:	90 91 96 00 	lds	r25, 0x0096
     d7e:	28 17       	cp	r18, r24
     d80:	39 07       	cpc	r19, r25
     d82:	90 f0       	brcs	.+36     	; 0xda8 <task_motionControl+0x18c>
     d84:	10 92 9a 00 	sts	0x009A, r1
     d88:	10 92 99 00 	sts	0x0099, r1
     d8c:	10 92 a4 00 	sts	0x00A4, r1
     d90:	10 92 a3 00 	sts	0x00A3, r1
     d94:	10 92 aa 00 	sts	0x00AA, r1
     d98:	10 92 a9 00 	sts	0x00A9, r1
     d9c:	80 91 90 00 	lds	r24, 0x0090
     da0:	8d 7f       	andi	r24, 0xFD	; 253
     da2:	80 93 90 00 	sts	0x0090, r24
     da6:	22 c0       	rjmp	.+68     	; 0xdec <task_motionControl+0x1d0>
     da8:	20 91 ef 00 	lds	r18, 0x00EF
     dac:	30 91 f0 00 	lds	r19, 0x00F0
     db0:	80 91 ad 00 	lds	r24, 0x00AD
     db4:	90 91 ae 00 	lds	r25, 0x00AE
     db8:	28 17       	cp	r18, r24
     dba:	39 07       	cpc	r19, r25
     dbc:	b8 f0       	brcs	.+46     	; 0xdec <task_motionControl+0x1d0>
     dbe:	80 91 99 00 	lds	r24, 0x0099
     dc2:	90 91 9a 00 	lds	r25, 0x009A
     dc6:	96 95       	lsr	r25
     dc8:	87 95       	ror	r24
     dca:	90 93 9a 00 	sts	0x009A, r25
     dce:	80 93 99 00 	sts	0x0099, r24
     dd2:	80 91 99 00 	lds	r24, 0x0099
     dd6:	90 91 9a 00 	lds	r25, 0x009A
     dda:	86 31       	cpi	r24, 0x16	; 22
     ddc:	91 05       	cpc	r25, r1
     dde:	30 f4       	brcc	.+12     	; 0xdec <task_motionControl+0x1d0>
     de0:	86 e1       	ldi	r24, 0x16	; 22
     de2:	90 e0       	ldi	r25, 0x00	; 0
     de4:	90 93 9a 00 	sts	0x009A, r25
     de8:	80 93 99 00 	sts	0x0099, r24
     dec:	80 91 90 00 	lds	r24, 0x0090
     df0:	81 70       	andi	r24, 0x01	; 1
     df2:	88 23       	and	r24, r24
     df4:	09 f4       	brne	.+2      	; 0xdf8 <task_motionControl+0x1dc>
     df6:	3f c0       	rjmp	.+126    	; 0xe76 <task_motionControl+0x25a>
     df8:	20 91 e1 00 	lds	r18, 0x00E1
     dfc:	30 91 e2 00 	lds	r19, 0x00E2
     e00:	80 91 b7 00 	lds	r24, 0x00B7
     e04:	90 91 b8 00 	lds	r25, 0x00B8
     e08:	28 17       	cp	r18, r24
     e0a:	39 07       	cpc	r19, r25
     e0c:	90 f0       	brcs	.+36     	; 0xe32 <task_motionControl+0x216>
     e0e:	10 92 98 00 	sts	0x0098, r1
     e12:	10 92 97 00 	sts	0x0097, r1
     e16:	10 92 df 00 	sts	0x00DF, r1
     e1a:	10 92 de 00 	sts	0x00DE, r1
     e1e:	10 92 ba 00 	sts	0x00BA, r1
     e22:	10 92 b9 00 	sts	0x00B9, r1
     e26:	80 91 90 00 	lds	r24, 0x0090
     e2a:	8e 7f       	andi	r24, 0xFE	; 254
     e2c:	80 93 90 00 	sts	0x0090, r24
     e30:	22 c0       	rjmp	.+68     	; 0xe76 <task_motionControl+0x25a>
     e32:	20 91 e1 00 	lds	r18, 0x00E1
     e36:	30 91 e2 00 	lds	r19, 0x00E2
     e3a:	80 91 e3 00 	lds	r24, 0x00E3
     e3e:	90 91 e4 00 	lds	r25, 0x00E4
     e42:	28 17       	cp	r18, r24
     e44:	39 07       	cpc	r19, r25
     e46:	b8 f0       	brcs	.+46     	; 0xe76 <task_motionControl+0x25a>
     e48:	80 91 97 00 	lds	r24, 0x0097
     e4c:	90 91 98 00 	lds	r25, 0x0098
     e50:	96 95       	lsr	r25
     e52:	87 95       	ror	r24
     e54:	90 93 98 00 	sts	0x0098, r25
     e58:	80 93 97 00 	sts	0x0097, r24
     e5c:	80 91 97 00 	lds	r24, 0x0097
     e60:	90 91 98 00 	lds	r25, 0x0098
     e64:	86 31       	cpi	r24, 0x16	; 22
     e66:	91 05       	cpc	r25, r1
     e68:	30 f4       	brcc	.+12     	; 0xe76 <task_motionControl+0x25a>
     e6a:	86 e1       	ldi	r24, 0x16	; 22
     e6c:	90 e0       	ldi	r25, 0x00	; 0
     e6e:	90 93 98 00 	sts	0x0098, r25
     e72:	80 93 97 00 	sts	0x0097, r24
     e76:	90 91 70 00 	lds	r25, 0x0070
     e7a:	80 91 72 00 	lds	r24, 0x0072
     e7e:	98 17       	cp	r25, r24
     e80:	39 f4       	brne	.+14     	; 0xe90 <task_motionControl+0x274>
     e82:	90 91 71 00 	lds	r25, 0x0071
     e86:	80 91 73 00 	lds	r24, 0x0073
     e8a:	98 17       	cp	r25, r24
     e8c:	09 f4       	brne	.+2      	; 0xe90 <task_motionControl+0x274>
     e8e:	64 c0       	rjmp	.+200    	; 0xf58 <task_motionControl+0x33c>
     e90:	80 91 99 00 	lds	r24, 0x0099
     e94:	90 91 9a 00 	lds	r25, 0x009A
     e98:	00 97       	sbiw	r24, 0x00	; 0
     e9a:	31 f4       	brne	.+12     	; 0xea8 <task_motionControl+0x28c>
     e9c:	80 91 97 00 	lds	r24, 0x0097
     ea0:	90 91 98 00 	lds	r25, 0x0098
     ea4:	00 97       	sbiw	r24, 0x00	; 0
     ea6:	41 f1       	breq	.+80     	; 0xef8 <task_motionControl+0x2dc>
     ea8:	80 91 99 00 	lds	r24, 0x0099
     eac:	90 91 9a 00 	lds	r25, 0x009A
     eb0:	90 93 9c 00 	sts	0x009C, r25
     eb4:	80 93 9b 00 	sts	0x009B, r24
     eb8:	80 91 97 00 	lds	r24, 0x0097
     ebc:	90 91 98 00 	lds	r25, 0x0098
     ec0:	90 93 b0 00 	sts	0x00B0, r25
     ec4:	80 93 af 00 	sts	0x00AF, r24
     ec8:	10 92 9a 00 	sts	0x009A, r1
     ecc:	10 92 99 00 	sts	0x0099, r1
     ed0:	10 92 98 00 	sts	0x0098, r1
     ed4:	10 92 97 00 	sts	0x0097, r1
     ed8:	10 92 ba 00 	sts	0x00BA, r1
     edc:	10 92 b9 00 	sts	0x00B9, r1
     ee0:	10 92 aa 00 	sts	0x00AA, r1
     ee4:	10 92 a9 00 	sts	0x00A9, r1
     ee8:	10 92 a4 00 	sts	0x00A4, r1
     eec:	10 92 a3 00 	sts	0x00A3, r1
     ef0:	10 92 df 00 	sts	0x00DF, r1
     ef4:	10 92 de 00 	sts	0x00DE, r1
     ef8:	ef e4       	ldi	r30, 0x4F	; 79
     efa:	f0 e0       	ldi	r31, 0x00	; 0
     efc:	80 81       	ld	r24, Z
     efe:	88 23       	and	r24, r24
     f00:	59 f5       	brne	.+86     	; 0xf58 <task_motionControl+0x33c>
     f02:	80 91 70 00 	lds	r24, 0x0070
     f06:	90 91 71 00 	lds	r25, 0x0071
     f0a:	69 2f       	mov	r22, r25
     f0c:	0e 94 31 0b 	call	0x1662	; 0x1662 <setMotorDir>
     f10:	80 91 9b 00 	lds	r24, 0x009B
     f14:	90 91 9c 00 	lds	r25, 0x009C
     f18:	90 93 9a 00 	sts	0x009A, r25
     f1c:	80 93 99 00 	sts	0x0099, r24
     f20:	80 91 af 00 	lds	r24, 0x00AF
     f24:	90 91 b0 00 	lds	r25, 0x00B0
     f28:	90 93 98 00 	sts	0x0098, r25
     f2c:	80 93 97 00 	sts	0x0097, r24
     f30:	80 91 99 00 	lds	r24, 0x0099
     f34:	90 91 9a 00 	lds	r25, 0x009A
     f38:	96 95       	lsr	r25
     f3a:	87 95       	ror	r24
     f3c:	90 93 a4 00 	sts	0x00A4, r25
     f40:	80 93 a3 00 	sts	0x00A3, r24
     f44:	80 91 97 00 	lds	r24, 0x0097
     f48:	90 91 98 00 	lds	r25, 0x0098
     f4c:	96 95       	lsr	r25
     f4e:	87 95       	ror	r24
     f50:	90 93 df 00 	sts	0x00DF, r25
     f54:	80 93 de 00 	sts	0x00DE, r24
     f58:	20 91 99 00 	lds	r18, 0x0099
     f5c:	30 91 9a 00 	lds	r19, 0x009A
     f60:	80 91 ab 00 	lds	r24, 0x00AB
     f64:	90 91 ac 00 	lds	r25, 0x00AC
     f68:	a9 01       	movw	r20, r18
     f6a:	48 1b       	sub	r20, r24
     f6c:	59 0b       	sbc	r21, r25
     f6e:	ca 01       	movw	r24, r20
     f70:	9c 83       	std	Y+4, r25	; 0x04
     f72:	8b 83       	std	Y+3, r24	; 0x03
     f74:	20 91 a3 00 	lds	r18, 0x00A3
     f78:	30 91 a4 00 	lds	r19, 0x00A4
     f7c:	8b 81       	ldd	r24, Y+3	; 0x03
     f7e:	9c 81       	ldd	r25, Y+4	; 0x04
     f80:	82 0f       	add	r24, r18
     f82:	93 1f       	adc	r25, r19
     f84:	90 93 a4 00 	sts	0x00A4, r25
     f88:	80 93 a3 00 	sts	0x00A3, r24
     f8c:	80 91 a3 00 	lds	r24, 0x00A3
     f90:	90 91 a4 00 	lds	r25, 0x00A4
     f94:	51 e0       	ldi	r21, 0x01	; 1
     f96:	85 3a       	cpi	r24, 0xA5	; 165
     f98:	95 07       	cpc	r25, r21
     f9a:	34 f0       	brlt	.+12     	; 0xfa8 <task_motionControl+0x38c>
     f9c:	84 ea       	ldi	r24, 0xA4	; 164
     f9e:	91 e0       	ldi	r25, 0x01	; 1
     fa0:	90 93 a4 00 	sts	0x00A4, r25
     fa4:	80 93 a3 00 	sts	0x00A3, r24
     fa8:	80 91 a3 00 	lds	r24, 0x00A3
     fac:	90 91 a4 00 	lds	r25, 0x00A4
     fb0:	2e ef       	ldi	r18, 0xFE	; 254
     fb2:	8c 35       	cpi	r24, 0x5C	; 92
     fb4:	92 07       	cpc	r25, r18
     fb6:	34 f4       	brge	.+12     	; 0xfc4 <task_motionControl+0x3a8>
     fb8:	8c e5       	ldi	r24, 0x5C	; 92
     fba:	9e ef       	ldi	r25, 0xFE	; 254
     fbc:	90 93 a4 00 	sts	0x00A4, r25
     fc0:	80 93 a3 00 	sts	0x00A3, r24
     fc4:	80 91 ab 00 	lds	r24, 0x00AB
     fc8:	90 91 ac 00 	lds	r25, 0x00AC
     fcc:	00 97       	sbiw	r24, 0x00	; 0
     fce:	51 f4       	brne	.+20     	; 0xfe4 <task_motionControl+0x3c8>
     fd0:	80 91 99 00 	lds	r24, 0x0099
     fd4:	90 91 9a 00 	lds	r25, 0x009A
     fd8:	00 97       	sbiw	r24, 0x00	; 0
     fda:	21 f4       	brne	.+8      	; 0xfe4 <task_motionControl+0x3c8>
     fdc:	10 92 a4 00 	sts	0x00A4, r1
     fe0:	10 92 a3 00 	sts	0x00A3, r1
     fe4:	80 91 a3 00 	lds	r24, 0x00A3
     fe8:	90 91 a4 00 	lds	r25, 0x00A4
     fec:	9e 83       	std	Y+6, r25	; 0x06
     fee:	8d 83       	std	Y+5, r24	; 0x05
     ff0:	4d 81       	ldd	r20, Y+5	; 0x05
     ff2:	5e 81       	ldd	r21, Y+6	; 0x06
     ff4:	55 23       	and	r21, r21
     ff6:	2c f4       	brge	.+10     	; 0x1002 <task_motionControl+0x3e6>
     ff8:	8d 81       	ldd	r24, Y+5	; 0x05
     ffa:	9e 81       	ldd	r25, Y+6	; 0x06
     ffc:	01 96       	adiw	r24, 0x01	; 1
     ffe:	9e 83       	std	Y+6, r25	; 0x06
    1000:	8d 83       	std	Y+5, r24	; 0x05
    1002:	8d 81       	ldd	r24, Y+5	; 0x05
    1004:	9e 81       	ldd	r25, Y+6	; 0x06
    1006:	95 95       	asr	r25
    1008:	87 95       	ror	r24
    100a:	90 93 aa 00 	sts	0x00AA, r25
    100e:	80 93 a9 00 	sts	0x00A9, r24
    1012:	80 91 a9 00 	lds	r24, 0x00A9
    1016:	90 91 aa 00 	lds	r25, 0x00AA
    101a:	83 3d       	cpi	r24, 0xD3	; 211
    101c:	91 05       	cpc	r25, r1
    101e:	34 f0       	brlt	.+12     	; 0x102c <task_motionControl+0x410>
    1020:	82 ed       	ldi	r24, 0xD2	; 210
    1022:	90 e0       	ldi	r25, 0x00	; 0
    1024:	90 93 aa 00 	sts	0x00AA, r25
    1028:	80 93 a9 00 	sts	0x00A9, r24
    102c:	80 91 a9 00 	lds	r24, 0x00A9
    1030:	90 91 aa 00 	lds	r25, 0x00AA
    1034:	99 23       	and	r25, r25
    1036:	24 f4       	brge	.+8      	; 0x1040 <task_motionControl+0x424>
    1038:	10 92 aa 00 	sts	0x00AA, r1
    103c:	10 92 a9 00 	sts	0x00A9, r1
    1040:	20 91 97 00 	lds	r18, 0x0097
    1044:	30 91 98 00 	lds	r19, 0x0098
    1048:	80 91 ed 00 	lds	r24, 0x00ED
    104c:	90 91 ee 00 	lds	r25, 0x00EE
    1050:	a9 01       	movw	r20, r18
    1052:	48 1b       	sub	r20, r24
    1054:	59 0b       	sbc	r21, r25
    1056:	ca 01       	movw	r24, r20
    1058:	9a 83       	std	Y+2, r25	; 0x02
    105a:	89 83       	std	Y+1, r24	; 0x01
    105c:	20 91 de 00 	lds	r18, 0x00DE
    1060:	30 91 df 00 	lds	r19, 0x00DF
    1064:	89 81       	ldd	r24, Y+1	; 0x01
    1066:	9a 81       	ldd	r25, Y+2	; 0x02
    1068:	82 0f       	add	r24, r18
    106a:	93 1f       	adc	r25, r19
    106c:	90 93 df 00 	sts	0x00DF, r25
    1070:	80 93 de 00 	sts	0x00DE, r24
    1074:	80 91 de 00 	lds	r24, 0x00DE
    1078:	90 91 df 00 	lds	r25, 0x00DF
    107c:	51 e0       	ldi	r21, 0x01	; 1
    107e:	85 3a       	cpi	r24, 0xA5	; 165
    1080:	95 07       	cpc	r25, r21
    1082:	34 f0       	brlt	.+12     	; 0x1090 <task_motionControl+0x474>
    1084:	84 ea       	ldi	r24, 0xA4	; 164
    1086:	91 e0       	ldi	r25, 0x01	; 1
    1088:	90 93 df 00 	sts	0x00DF, r25
    108c:	80 93 de 00 	sts	0x00DE, r24
    1090:	80 91 de 00 	lds	r24, 0x00DE
    1094:	90 91 df 00 	lds	r25, 0x00DF
    1098:	2e ef       	ldi	r18, 0xFE	; 254
    109a:	8c 35       	cpi	r24, 0x5C	; 92
    109c:	92 07       	cpc	r25, r18
    109e:	34 f4       	brge	.+12     	; 0x10ac <task_motionControl+0x490>
    10a0:	8c e5       	ldi	r24, 0x5C	; 92
    10a2:	9e ef       	ldi	r25, 0xFE	; 254
    10a4:	90 93 df 00 	sts	0x00DF, r25
    10a8:	80 93 de 00 	sts	0x00DE, r24
    10ac:	80 91 ed 00 	lds	r24, 0x00ED
    10b0:	90 91 ee 00 	lds	r25, 0x00EE
    10b4:	00 97       	sbiw	r24, 0x00	; 0
    10b6:	51 f4       	brne	.+20     	; 0x10cc <task_motionControl+0x4b0>
    10b8:	80 91 97 00 	lds	r24, 0x0097
    10bc:	90 91 98 00 	lds	r25, 0x0098
    10c0:	00 97       	sbiw	r24, 0x00	; 0
    10c2:	21 f4       	brne	.+8      	; 0x10cc <task_motionControl+0x4b0>
    10c4:	10 92 df 00 	sts	0x00DF, r1
    10c8:	10 92 de 00 	sts	0x00DE, r1
    10cc:	80 91 de 00 	lds	r24, 0x00DE
    10d0:	90 91 df 00 	lds	r25, 0x00DF
    10d4:	98 87       	std	Y+8, r25	; 0x08
    10d6:	8f 83       	std	Y+7, r24	; 0x07
    10d8:	4f 81       	ldd	r20, Y+7	; 0x07
    10da:	58 85       	ldd	r21, Y+8	; 0x08
    10dc:	55 23       	and	r21, r21
    10de:	2c f4       	brge	.+10     	; 0x10ea <task_motionControl+0x4ce>
    10e0:	8f 81       	ldd	r24, Y+7	; 0x07
    10e2:	98 85       	ldd	r25, Y+8	; 0x08
    10e4:	01 96       	adiw	r24, 0x01	; 1
    10e6:	98 87       	std	Y+8, r25	; 0x08
    10e8:	8f 83       	std	Y+7, r24	; 0x07
    10ea:	8f 81       	ldd	r24, Y+7	; 0x07
    10ec:	98 85       	ldd	r25, Y+8	; 0x08
    10ee:	95 95       	asr	r25
    10f0:	87 95       	ror	r24
    10f2:	90 93 ba 00 	sts	0x00BA, r25
    10f6:	80 93 b9 00 	sts	0x00B9, r24
    10fa:	80 91 b9 00 	lds	r24, 0x00B9
    10fe:	90 91 ba 00 	lds	r25, 0x00BA
    1102:	83 3d       	cpi	r24, 0xD3	; 211
    1104:	91 05       	cpc	r25, r1
    1106:	34 f0       	brlt	.+12     	; 0x1114 <task_motionControl+0x4f8>
    1108:	82 ed       	ldi	r24, 0xD2	; 210
    110a:	90 e0       	ldi	r25, 0x00	; 0
    110c:	90 93 ba 00 	sts	0x00BA, r25
    1110:	80 93 b9 00 	sts	0x00B9, r24
    1114:	80 91 b9 00 	lds	r24, 0x00B9
    1118:	90 91 ba 00 	lds	r25, 0x00BA
    111c:	99 23       	and	r25, r25
    111e:	54 f4       	brge	.+20     	; 0x1134 <task_motionControl+0x518>
    1120:	10 92 ba 00 	sts	0x00BA, r1
    1124:	10 92 b9 00 	sts	0x00B9, r1
    1128:	05 c0       	rjmp	.+10     	; 0x1134 <task_motionControl+0x518>
    112a:	80 91 d2 00 	lds	r24, 0x00D2
    112e:	81 50       	subi	r24, 0x01	; 1
    1130:	80 93 d2 00 	sts	0x00D2, r24
    1134:	10 92 a7 00 	sts	0x00A7, r1
    1138:	90 91 90 00 	lds	r25, 0x0090
    113c:	80 91 f3 00 	lds	r24, 0x00F3
    1140:	98 17       	cp	r25, r24
    1142:	49 f0       	breq	.+18     	; 0x1156 <task_motionControl+0x53a>
    1144:	80 91 90 00 	lds	r24, 0x0090
    1148:	80 93 f3 00 	sts	0x00F3, r24
    114c:	e0 91 69 00 	lds	r30, 0x0069
    1150:	f0 91 6a 00 	lds	r31, 0x006A
    1154:	09 95       	icall
    1156:	28 96       	adiw	r28, 0x08	; 8
    1158:	0f b6       	in	r0, 0x3f	; 63
    115a:	f8 94       	cli
    115c:	de bf       	out	0x3e, r29	; 62
    115e:	0f be       	out	0x3f, r0	; 63
    1160:	cd bf       	out	0x3d, r28	; 61
    1162:	cf 91       	pop	r28
    1164:	df 91       	pop	r29
    1166:	08 95       	ret

00001168 <moveAtSpeed>:
    1168:	df 93       	push	r29
    116a:	cf 93       	push	r28
    116c:	00 d0       	rcall	.+0      	; 0x116e <moveAtSpeed+0x6>
    116e:	cd b7       	in	r28, 0x3d	; 61
    1170:	de b7       	in	r29, 0x3e	; 62
    1172:	89 83       	std	Y+1, r24	; 0x01
    1174:	6a 83       	std	Y+2, r22	; 0x02
    1176:	89 81       	ldd	r24, Y+1	; 0x01
    1178:	89 3c       	cpi	r24, 0xC9	; 201
    117a:	10 f0       	brcs	.+4      	; 0x1180 <moveAtSpeed+0x18>
    117c:	88 ec       	ldi	r24, 0xC8	; 200
    117e:	89 83       	std	Y+1, r24	; 0x01
    1180:	8a 81       	ldd	r24, Y+2	; 0x02
    1182:	89 3c       	cpi	r24, 0xC9	; 201
    1184:	10 f0       	brcs	.+4      	; 0x118a <moveAtSpeed+0x22>
    1186:	88 ec       	ldi	r24, 0xC8	; 200
    1188:	8a 83       	std	Y+2, r24	; 0x02
    118a:	89 81       	ldd	r24, Y+1	; 0x01
    118c:	88 2f       	mov	r24, r24
    118e:	90 e0       	ldi	r25, 0x00	; 0
    1190:	90 93 9a 00 	sts	0x009A, r25
    1194:	80 93 99 00 	sts	0x0099, r24
    1198:	8a 81       	ldd	r24, Y+2	; 0x02
    119a:	88 2f       	mov	r24, r24
    119c:	90 e0       	ldi	r25, 0x00	; 0
    119e:	90 93 98 00 	sts	0x0098, r25
    11a2:	80 93 97 00 	sts	0x0097, r24
    11a6:	0f 90       	pop	r0
    11a8:	0f 90       	pop	r0
    11aa:	cf 91       	pop	r28
    11ac:	df 91       	pop	r29
    11ae:	08 95       	ret

000011b0 <changeDirection>:
    11b0:	df 93       	push	r29
    11b2:	cf 93       	push	r28
    11b4:	00 d0       	rcall	.+0      	; 0x11b6 <changeDirection+0x6>
    11b6:	00 d0       	rcall	.+0      	; 0x11b8 <changeDirection+0x8>
    11b8:	0f 92       	push	r0
    11ba:	cd b7       	in	r28, 0x3d	; 61
    11bc:	de b7       	in	r29, 0x3e	; 62
    11be:	89 83       	std	Y+1, r24	; 0x01
    11c0:	89 81       	ldd	r24, Y+1	; 0x01
    11c2:	80 93 74 00 	sts	0x0074, r24
    11c6:	89 81       	ldd	r24, Y+1	; 0x01
    11c8:	81 30       	cpi	r24, 0x01	; 1
    11ca:	19 f0       	breq	.+6      	; 0x11d2 <changeDirection+0x22>
    11cc:	89 81       	ldd	r24, Y+1	; 0x01
    11ce:	82 30       	cpi	r24, 0x02	; 2
    11d0:	29 f4       	brne	.+10     	; 0x11dc <changeDirection+0x2c>
    11d2:	81 e0       	ldi	r24, 0x01	; 1
    11d4:	90 e0       	ldi	r25, 0x00	; 0
    11d6:	9d 83       	std	Y+5, r25	; 0x05
    11d8:	8c 83       	std	Y+4, r24	; 0x04
    11da:	02 c0       	rjmp	.+4      	; 0x11e0 <changeDirection+0x30>
    11dc:	1d 82       	std	Y+5, r1	; 0x05
    11de:	1c 82       	std	Y+4, r1	; 0x04
    11e0:	8c 81       	ldd	r24, Y+4	; 0x04
    11e2:	80 93 70 00 	sts	0x0070, r24
    11e6:	89 81       	ldd	r24, Y+1	; 0x01
    11e8:	81 30       	cpi	r24, 0x01	; 1
    11ea:	19 f0       	breq	.+6      	; 0x11f2 <changeDirection+0x42>
    11ec:	89 81       	ldd	r24, Y+1	; 0x01
    11ee:	83 30       	cpi	r24, 0x03	; 3
    11f0:	29 f4       	brne	.+10     	; 0x11fc <changeDirection+0x4c>
    11f2:	81 e0       	ldi	r24, 0x01	; 1
    11f4:	90 e0       	ldi	r25, 0x00	; 0
    11f6:	9b 83       	std	Y+3, r25	; 0x03
    11f8:	8a 83       	std	Y+2, r24	; 0x02
    11fa:	02 c0       	rjmp	.+4      	; 0x1200 <changeDirection+0x50>
    11fc:	1b 82       	std	Y+3, r1	; 0x03
    11fe:	1a 82       	std	Y+2, r1	; 0x02
    1200:	8a 81       	ldd	r24, Y+2	; 0x02
    1202:	80 93 71 00 	sts	0x0071, r24
    1206:	0f 90       	pop	r0
    1208:	0f 90       	pop	r0
    120a:	0f 90       	pop	r0
    120c:	0f 90       	pop	r0
    120e:	0f 90       	pop	r0
    1210:	cf 91       	pop	r28
    1212:	df 91       	pop	r29
    1214:	08 95       	ret

00001216 <moveAtSpeedDirection>:
    1216:	df 93       	push	r29
    1218:	cf 93       	push	r28
    121a:	cd b7       	in	r28, 0x3d	; 61
    121c:	de b7       	in	r29, 0x3e	; 62
    121e:	2a 97       	sbiw	r28, 0x0a	; 10
    1220:	0f b6       	in	r0, 0x3f	; 63
    1222:	f8 94       	cli
    1224:	de bf       	out	0x3e, r29	; 62
    1226:	0f be       	out	0x3f, r0	; 63
    1228:	cd bf       	out	0x3d, r28	; 61
    122a:	9c 83       	std	Y+4, r25	; 0x04
    122c:	8b 83       	std	Y+3, r24	; 0x03
    122e:	7e 83       	std	Y+6, r23	; 0x06
    1230:	6d 83       	std	Y+5, r22	; 0x05
    1232:	1a 86       	std	Y+10, r1	; 0x0a
    1234:	8b 81       	ldd	r24, Y+3	; 0x03
    1236:	9c 81       	ldd	r25, Y+4	; 0x04
    1238:	99 23       	and	r25, r25
    123a:	14 f4       	brge	.+4      	; 0x1240 <moveAtSpeedDirection+0x2a>
    123c:	81 e0       	ldi	r24, 0x01	; 1
    123e:	8a 87       	std	Y+10, r24	; 0x0a
    1240:	8a 85       	ldd	r24, Y+10	; 0x0a
    1242:	80 93 70 00 	sts	0x0070, r24
    1246:	19 86       	std	Y+9, r1	; 0x09
    1248:	8d 81       	ldd	r24, Y+5	; 0x05
    124a:	9e 81       	ldd	r25, Y+6	; 0x06
    124c:	99 23       	and	r25, r25
    124e:	14 f4       	brge	.+4      	; 0x1254 <moveAtSpeedDirection+0x3e>
    1250:	81 e0       	ldi	r24, 0x01	; 1
    1252:	89 87       	std	Y+9, r24	; 0x09
    1254:	89 85       	ldd	r24, Y+9	; 0x09
    1256:	80 93 71 00 	sts	0x0071, r24
    125a:	8b 81       	ldd	r24, Y+3	; 0x03
    125c:	9c 81       	ldd	r25, Y+4	; 0x04
    125e:	18 16       	cp	r1, r24
    1260:	19 06       	cpc	r1, r25
    1262:	1c f4       	brge	.+6      	; 0x126a <moveAtSpeedDirection+0x54>
    1264:	8b 81       	ldd	r24, Y+3	; 0x03
    1266:	88 87       	std	Y+8, r24	; 0x08
    1268:	03 c0       	rjmp	.+6      	; 0x1270 <moveAtSpeedDirection+0x5a>
    126a:	8b 81       	ldd	r24, Y+3	; 0x03
    126c:	81 95       	neg	r24
    126e:	88 87       	std	Y+8, r24	; 0x08
    1270:	88 85       	ldd	r24, Y+8	; 0x08
    1272:	8a 83       	std	Y+2, r24	; 0x02
    1274:	8b 81       	ldd	r24, Y+3	; 0x03
    1276:	9c 81       	ldd	r25, Y+4	; 0x04
    1278:	18 16       	cp	r1, r24
    127a:	19 06       	cpc	r1, r25
    127c:	1c f4       	brge	.+6      	; 0x1284 <moveAtSpeedDirection+0x6e>
    127e:	8d 81       	ldd	r24, Y+5	; 0x05
    1280:	8f 83       	std	Y+7, r24	; 0x07
    1282:	03 c0       	rjmp	.+6      	; 0x128a <moveAtSpeedDirection+0x74>
    1284:	8d 81       	ldd	r24, Y+5	; 0x05
    1286:	81 95       	neg	r24
    1288:	8f 83       	std	Y+7, r24	; 0x07
    128a:	8f 81       	ldd	r24, Y+7	; 0x07
    128c:	89 83       	std	Y+1, r24	; 0x01
    128e:	8a 81       	ldd	r24, Y+2	; 0x02
    1290:	69 81       	ldd	r22, Y+1	; 0x01
    1292:	0e 94 b4 08 	call	0x1168	; 0x1168 <moveAtSpeed>
    1296:	2a 96       	adiw	r28, 0x0a	; 10
    1298:	0f b6       	in	r0, 0x3f	; 63
    129a:	f8 94       	cli
    129c:	de bf       	out	0x3e, r29	; 62
    129e:	0f be       	out	0x3f, r0	; 63
    12a0:	cd bf       	out	0x3d, r28	; 61
    12a2:	cf 91       	pop	r28
    12a4:	df 91       	pop	r29
    12a6:	08 95       	ret

000012a8 <isMovementComplete>:
    12a8:	df 93       	push	r29
    12aa:	cf 93       	push	r28
    12ac:	00 d0       	rcall	.+0      	; 0x12ae <isMovementComplete+0x6>
    12ae:	cd b7       	in	r28, 0x3d	; 61
    12b0:	de b7       	in	r29, 0x3e	; 62
    12b2:	80 91 90 00 	lds	r24, 0x0090
    12b6:	81 70       	andi	r24, 0x01	; 1
    12b8:	88 23       	and	r24, r24
    12ba:	51 f4       	brne	.+20     	; 0x12d0 <isMovementComplete+0x28>
    12bc:	80 91 90 00 	lds	r24, 0x0090
    12c0:	82 70       	andi	r24, 0x02	; 2
    12c2:	88 23       	and	r24, r24
    12c4:	29 f4       	brne	.+10     	; 0x12d0 <isMovementComplete+0x28>
    12c6:	81 e0       	ldi	r24, 0x01	; 1
    12c8:	90 e0       	ldi	r25, 0x00	; 0
    12ca:	9a 83       	std	Y+2, r25	; 0x02
    12cc:	89 83       	std	Y+1, r24	; 0x01
    12ce:	02 c0       	rjmp	.+4      	; 0x12d4 <isMovementComplete+0x2c>
    12d0:	1a 82       	std	Y+2, r1	; 0x02
    12d2:	19 82       	std	Y+1, r1	; 0x01
    12d4:	89 81       	ldd	r24, Y+1	; 0x01
    12d6:	0f 90       	pop	r0
    12d8:	0f 90       	pop	r0
    12da:	cf 91       	pop	r28
    12dc:	df 91       	pop	r29
    12de:	08 95       	ret

000012e0 <stop>:
    12e0:	df 93       	push	r29
    12e2:	cf 93       	push	r28
    12e4:	cd b7       	in	r28, 0x3d	; 61
    12e6:	de b7       	in	r29, 0x3e	; 62
    12e8:	10 92 9a 00 	sts	0x009A, r1
    12ec:	10 92 99 00 	sts	0x0099, r1
    12f0:	10 92 98 00 	sts	0x0098, r1
    12f4:	10 92 97 00 	sts	0x0097, r1
    12f8:	10 92 a4 00 	sts	0x00A4, r1
    12fc:	10 92 a3 00 	sts	0x00A3, r1
    1300:	10 92 df 00 	sts	0x00DF, r1
    1304:	10 92 de 00 	sts	0x00DE, r1
    1308:	80 91 90 00 	lds	r24, 0x0090
    130c:	8e 7f       	andi	r24, 0xFE	; 254
    130e:	80 93 90 00 	sts	0x0090, r24
    1312:	80 91 90 00 	lds	r24, 0x0090
    1316:	8d 7f       	andi	r24, 0xFD	; 253
    1318:	80 93 90 00 	sts	0x0090, r24
    131c:	80 91 90 00 	lds	r24, 0x0090
    1320:	80 93 f3 00 	sts	0x00F3, r24
    1324:	e0 91 69 00 	lds	r30, 0x0069
    1328:	f0 91 6a 00 	lds	r31, 0x006A
    132c:	09 95       	icall
    132e:	cf 91       	pop	r28
    1330:	df 91       	pop	r29
    1332:	08 95       	ret

00001334 <move>:
    1334:	df 93       	push	r29
    1336:	cf 93       	push	r28
    1338:	00 d0       	rcall	.+0      	; 0x133a <move+0x6>
    133a:	00 d0       	rcall	.+0      	; 0x133c <move+0x8>
    133c:	0f 92       	push	r0
    133e:	cd b7       	in	r28, 0x3d	; 61
    1340:	de b7       	in	r29, 0x3e	; 62
    1342:	89 83       	std	Y+1, r24	; 0x01
    1344:	6a 83       	std	Y+2, r22	; 0x02
    1346:	5c 83       	std	Y+4, r21	; 0x04
    1348:	4b 83       	std	Y+3, r20	; 0x03
    134a:	2d 83       	std	Y+5, r18	; 0x05
    134c:	80 91 90 00 	lds	r24, 0x0090
    1350:	81 60       	ori	r24, 0x01	; 1
    1352:	80 93 90 00 	sts	0x0090, r24
    1356:	80 91 90 00 	lds	r24, 0x0090
    135a:	82 60       	ori	r24, 0x02	; 2
    135c:	80 93 90 00 	sts	0x0090, r24
    1360:	10 92 e4 00 	sts	0x00E4, r1
    1364:	10 92 e3 00 	sts	0x00E3, r1
    1368:	10 92 ae 00 	sts	0x00AE, r1
    136c:	10 92 ad 00 	sts	0x00AD, r1
    1370:	89 81       	ldd	r24, Y+1	; 0x01
    1372:	87 31       	cpi	r24, 0x17	; 23
    1374:	d0 f0       	brcs	.+52     	; 0x13aa <move+0x76>
    1376:	89 81       	ldd	r24, Y+1	; 0x01
    1378:	28 2f       	mov	r18, r24
    137a:	30 e0       	ldi	r19, 0x00	; 0
    137c:	86 ef       	ldi	r24, 0xF6	; 246
    137e:	9f ef       	ldi	r25, 0xFF	; 255
    1380:	82 1b       	sub	r24, r18
    1382:	93 0b       	sbc	r25, r19
    1384:	88 0f       	add	r24, r24
    1386:	99 1f       	adc	r25, r25
    1388:	9c 01       	movw	r18, r24
    138a:	8b 81       	ldd	r24, Y+3	; 0x03
    138c:	9c 81       	ldd	r25, Y+4	; 0x04
    138e:	82 0f       	add	r24, r18
    1390:	93 1f       	adc	r25, r19
    1392:	90 93 e4 00 	sts	0x00E4, r25
    1396:	80 93 e3 00 	sts	0x00E3, r24
    139a:	80 91 e3 00 	lds	r24, 0x00E3
    139e:	90 91 e4 00 	lds	r25, 0x00E4
    13a2:	90 93 ae 00 	sts	0x00AE, r25
    13a6:	80 93 ad 00 	sts	0x00AD, r24
    13aa:	8b 81       	ldd	r24, Y+3	; 0x03
    13ac:	9c 81       	ldd	r25, Y+4	; 0x04
    13ae:	02 97       	sbiw	r24, 0x02	; 2
    13b0:	90 93 b8 00 	sts	0x00B8, r25
    13b4:	80 93 b7 00 	sts	0x00B7, r24
    13b8:	80 91 b7 00 	lds	r24, 0x00B7
    13bc:	90 91 b8 00 	lds	r25, 0x00B8
    13c0:	90 93 96 00 	sts	0x0096, r25
    13c4:	80 93 95 00 	sts	0x0095, r24
    13c8:	8b 81       	ldd	r24, Y+3	; 0x03
    13ca:	9c 81       	ldd	r25, Y+4	; 0x04
    13cc:	88 32       	cpi	r24, 0x28	; 40
    13ce:	91 05       	cpc	r25, r1
    13d0:	00 f5       	brcc	.+64     	; 0x1412 <move+0xde>
    13d2:	88 e2       	ldi	r24, 0x28	; 40
    13d4:	90 e0       	ldi	r25, 0x00	; 0
    13d6:	9c 83       	std	Y+4, r25	; 0x04
    13d8:	8b 83       	std	Y+3, r24	; 0x03
    13da:	84 e1       	ldi	r24, 0x14	; 20
    13dc:	90 e0       	ldi	r25, 0x00	; 0
    13de:	90 93 b8 00 	sts	0x00B8, r25
    13e2:	80 93 b7 00 	sts	0x00B7, r24
    13e6:	80 91 b7 00 	lds	r24, 0x00B7
    13ea:	90 91 b8 00 	lds	r25, 0x00B8
    13ee:	90 93 96 00 	sts	0x0096, r25
    13f2:	80 93 95 00 	sts	0x0095, r24
    13f6:	8a e0       	ldi	r24, 0x0A	; 10
    13f8:	90 e0       	ldi	r25, 0x00	; 0
    13fa:	90 93 e4 00 	sts	0x00E4, r25
    13fe:	80 93 e3 00 	sts	0x00E3, r24
    1402:	80 91 e3 00 	lds	r24, 0x00E3
    1406:	90 91 e4 00 	lds	r25, 0x00E4
    140a:	90 93 ae 00 	sts	0x00AE, r25
    140e:	80 93 ad 00 	sts	0x00AD, r24
    1412:	8b 81       	ldd	r24, Y+3	; 0x03
    1414:	9c 81       	ldd	r25, Y+4	; 0x04
    1416:	21 e0       	ldi	r18, 0x01	; 1
    1418:	80 39       	cpi	r24, 0x90	; 144
    141a:	92 07       	cpc	r25, r18
    141c:	e0 f4       	brcc	.+56     	; 0x1456 <move+0x122>
    141e:	89 81       	ldd	r24, Y+1	; 0x01
    1420:	89 32       	cpi	r24, 0x29	; 41
    1422:	c8 f0       	brcs	.+50     	; 0x1456 <move+0x122>
    1424:	88 e2       	ldi	r24, 0x28	; 40
    1426:	89 83       	std	Y+1, r24	; 0x01
    1428:	8b 81       	ldd	r24, Y+3	; 0x03
    142a:	9c 81       	ldd	r25, Y+4	; 0x04
    142c:	9c 01       	movw	r18, r24
    142e:	36 95       	lsr	r19
    1430:	27 95       	ror	r18
    1432:	36 95       	lsr	r19
    1434:	27 95       	ror	r18
    1436:	8b 81       	ldd	r24, Y+3	; 0x03
    1438:	9c 81       	ldd	r25, Y+4	; 0x04
    143a:	82 1b       	sub	r24, r18
    143c:	93 0b       	sbc	r25, r19
    143e:	90 93 e4 00 	sts	0x00E4, r25
    1442:	80 93 e3 00 	sts	0x00E3, r24
    1446:	80 91 e3 00 	lds	r24, 0x00E3
    144a:	90 91 e4 00 	lds	r25, 0x00E4
    144e:	90 93 ae 00 	sts	0x00AE, r25
    1452:	80 93 ad 00 	sts	0x00AD, r24
    1456:	10 92 f0 00 	sts	0x00F0, r1
    145a:	10 92 ef 00 	sts	0x00EF, r1
    145e:	10 92 e2 00 	sts	0x00E2, r1
    1462:	10 92 e1 00 	sts	0x00E1, r1
    1466:	89 81       	ldd	r24, Y+1	; 0x01
    1468:	69 81       	ldd	r22, Y+1	; 0x01
    146a:	0e 94 b4 08 	call	0x1168	; 0x1168 <moveAtSpeed>
    146e:	8a 81       	ldd	r24, Y+2	; 0x02
    1470:	0e 94 d8 08 	call	0x11b0	; 0x11b0 <changeDirection>
    1474:	8b 81       	ldd	r24, Y+3	; 0x03
    1476:	9c 81       	ldd	r25, Y+4	; 0x04
    1478:	90 93 c0 00 	sts	0x00C0, r25
    147c:	80 93 bf 00 	sts	0x00BF, r24
    1480:	8b 81       	ldd	r24, Y+3	; 0x03
    1482:	9c 81       	ldd	r25, Y+4	; 0x04
    1484:	90 93 a1 00 	sts	0x00A1, r25
    1488:	80 93 a0 00 	sts	0x00A0, r24
    148c:	80 91 90 00 	lds	r24, 0x0090
    1490:	80 93 f3 00 	sts	0x00F3, r24
    1494:	80 91 90 00 	lds	r24, 0x0090
    1498:	80 93 f3 00 	sts	0x00F3, r24
    149c:	e0 91 69 00 	lds	r30, 0x0069
    14a0:	f0 91 6a 00 	lds	r31, 0x006A
    14a4:	09 95       	icall
    14a6:	8d 81       	ldd	r24, Y+5	; 0x05
    14a8:	88 23       	and	r24, r24
    14aa:	39 f0       	breq	.+14     	; 0x14ba <move+0x186>
    14ac:	02 c0       	rjmp	.+4      	; 0x14b2 <move+0x17e>
    14ae:	0e 94 92 13 	call	0x2724	; 0x2724 <task_RP6System>
    14b2:	0e 94 54 09 	call	0x12a8	; 0x12a8 <isMovementComplete>
    14b6:	88 23       	and	r24, r24
    14b8:	d1 f3       	breq	.-12     	; 0x14ae <move+0x17a>
    14ba:	0f 90       	pop	r0
    14bc:	0f 90       	pop	r0
    14be:	0f 90       	pop	r0
    14c0:	0f 90       	pop	r0
    14c2:	0f 90       	pop	r0
    14c4:	cf 91       	pop	r28
    14c6:	df 91       	pop	r29
    14c8:	08 95       	ret

000014ca <rotate>:
    14ca:	df 93       	push	r29
    14cc:	cf 93       	push	r28
    14ce:	cd b7       	in	r28, 0x3d	; 61
    14d0:	de b7       	in	r29, 0x3e	; 62
    14d2:	27 97       	sbiw	r28, 0x07	; 7
    14d4:	0f b6       	in	r0, 0x3f	; 63
    14d6:	f8 94       	cli
    14d8:	de bf       	out	0x3e, r29	; 62
    14da:	0f be       	out	0x3f, r0	; 63
    14dc:	cd bf       	out	0x3d, r28	; 61
    14de:	8b 83       	std	Y+3, r24	; 0x03
    14e0:	6c 83       	std	Y+4, r22	; 0x04
    14e2:	5e 83       	std	Y+6, r21	; 0x06
    14e4:	4d 83       	std	Y+5, r20	; 0x05
    14e6:	2f 83       	std	Y+7, r18	; 0x07
    14e8:	80 91 90 00 	lds	r24, 0x0090
    14ec:	81 60       	ori	r24, 0x01	; 1
    14ee:	80 93 90 00 	sts	0x0090, r24
    14f2:	80 91 90 00 	lds	r24, 0x0090
    14f6:	82 60       	ori	r24, 0x02	; 2
    14f8:	80 93 90 00 	sts	0x0090, r24
    14fc:	8d 81       	ldd	r24, Y+5	; 0x05
    14fe:	9e 81       	ldd	r25, Y+6	; 0x06
    1500:	cc 01       	movw	r24, r24
    1502:	a0 e0       	ldi	r26, 0x00	; 0
    1504:	b0 e0       	ldi	r27, 0x00	; 0
    1506:	20 eb       	ldi	r18, 0xB0	; 176
    1508:	32 e0       	ldi	r19, 0x02	; 2
    150a:	40 e0       	ldi	r20, 0x00	; 0
    150c:	50 e0       	ldi	r21, 0x00	; 0
    150e:	bc 01       	movw	r22, r24
    1510:	cd 01       	movw	r24, r26
    1512:	0e 94 1a 17 	call	0x2e34	; 0x2e34 <__mulsi3>
    1516:	dc 01       	movw	r26, r24
    1518:	cb 01       	movw	r24, r22
    151a:	24 e6       	ldi	r18, 0x64	; 100
    151c:	30 e0       	ldi	r19, 0x00	; 0
    151e:	40 e0       	ldi	r20, 0x00	; 0
    1520:	50 e0       	ldi	r21, 0x00	; 0
    1522:	bc 01       	movw	r22, r24
    1524:	cd 01       	movw	r24, r26
    1526:	0e 94 4d 17 	call	0x2e9a	; 0x2e9a <__udivmodsi4>
    152a:	da 01       	movw	r26, r20
    152c:	c9 01       	movw	r24, r18
    152e:	9a 83       	std	Y+2, r25	; 0x02
    1530:	89 83       	std	Y+1, r24	; 0x01
    1532:	89 81       	ldd	r24, Y+1	; 0x01
    1534:	9a 81       	ldd	r25, Y+2	; 0x02
    1536:	84 56       	subi	r24, 0x64	; 100
    1538:	90 40       	sbci	r25, 0x00	; 0
    153a:	90 93 e4 00 	sts	0x00E4, r25
    153e:	80 93 e3 00 	sts	0x00E3, r24
    1542:	89 81       	ldd	r24, Y+1	; 0x01
    1544:	9a 81       	ldd	r25, Y+2	; 0x02
    1546:	84 56       	subi	r24, 0x64	; 100
    1548:	90 40       	sbci	r25, 0x00	; 0
    154a:	90 93 ae 00 	sts	0x00AE, r25
    154e:	80 93 ad 00 	sts	0x00AD, r24
    1552:	89 81       	ldd	r24, Y+1	; 0x01
    1554:	9a 81       	ldd	r25, Y+2	; 0x02
    1556:	90 93 b8 00 	sts	0x00B8, r25
    155a:	80 93 b7 00 	sts	0x00B7, r24
    155e:	89 81       	ldd	r24, Y+1	; 0x01
    1560:	9a 81       	ldd	r25, Y+2	; 0x02
    1562:	90 93 96 00 	sts	0x0096, r25
    1566:	80 93 95 00 	sts	0x0095, r24
    156a:	89 81       	ldd	r24, Y+1	; 0x01
    156c:	9a 81       	ldd	r25, Y+2	; 0x02
    156e:	88 32       	cpi	r24, 0x28	; 40
    1570:	91 05       	cpc	r25, r1
    1572:	e0 f4       	brcc	.+56     	; 0x15ac <rotate+0xe2>
    1574:	88 e2       	ldi	r24, 0x28	; 40
    1576:	90 e0       	ldi	r25, 0x00	; 0
    1578:	9a 83       	std	Y+2, r25	; 0x02
    157a:	89 83       	std	Y+1, r24	; 0x01
    157c:	84 e1       	ldi	r24, 0x14	; 20
    157e:	90 e0       	ldi	r25, 0x00	; 0
    1580:	90 93 b8 00 	sts	0x00B8, r25
    1584:	80 93 b7 00 	sts	0x00B7, r24
    1588:	84 e1       	ldi	r24, 0x14	; 20
    158a:	90 e0       	ldi	r25, 0x00	; 0
    158c:	90 93 96 00 	sts	0x0096, r25
    1590:	80 93 95 00 	sts	0x0095, r24
    1594:	8a e0       	ldi	r24, 0x0A	; 10
    1596:	90 e0       	ldi	r25, 0x00	; 0
    1598:	90 93 e4 00 	sts	0x00E4, r25
    159c:	80 93 e3 00 	sts	0x00E3, r24
    15a0:	8a e0       	ldi	r24, 0x0A	; 10
    15a2:	90 e0       	ldi	r25, 0x00	; 0
    15a4:	90 93 ae 00 	sts	0x00AE, r25
    15a8:	80 93 ad 00 	sts	0x00AD, r24
    15ac:	8b 81       	ldd	r24, Y+3	; 0x03
    15ae:	6b 81       	ldd	r22, Y+3	; 0x03
    15b0:	0e 94 b4 08 	call	0x1168	; 0x1168 <moveAtSpeed>
    15b4:	8c 81       	ldd	r24, Y+4	; 0x04
    15b6:	0e 94 d8 08 	call	0x11b0	; 0x11b0 <changeDirection>
    15ba:	10 92 f0 00 	sts	0x00F0, r1
    15be:	10 92 ef 00 	sts	0x00EF, r1
    15c2:	10 92 e2 00 	sts	0x00E2, r1
    15c6:	10 92 e1 00 	sts	0x00E1, r1
    15ca:	89 81       	ldd	r24, Y+1	; 0x01
    15cc:	9a 81       	ldd	r25, Y+2	; 0x02
    15ce:	90 93 c0 00 	sts	0x00C0, r25
    15d2:	80 93 bf 00 	sts	0x00BF, r24
    15d6:	89 81       	ldd	r24, Y+1	; 0x01
    15d8:	9a 81       	ldd	r25, Y+2	; 0x02
    15da:	90 93 a1 00 	sts	0x00A1, r25
    15de:	80 93 a0 00 	sts	0x00A0, r24
    15e2:	80 91 90 00 	lds	r24, 0x0090
    15e6:	80 93 f3 00 	sts	0x00F3, r24
    15ea:	e0 91 69 00 	lds	r30, 0x0069
    15ee:	f0 91 6a 00 	lds	r31, 0x006A
    15f2:	09 95       	icall
    15f4:	8f 81       	ldd	r24, Y+7	; 0x07
    15f6:	88 23       	and	r24, r24
    15f8:	39 f0       	breq	.+14     	; 0x1608 <rotate+0x13e>
    15fa:	02 c0       	rjmp	.+4      	; 0x1600 <rotate+0x136>
    15fc:	0e 94 92 13 	call	0x2724	; 0x2724 <task_RP6System>
    1600:	0e 94 54 09 	call	0x12a8	; 0x12a8 <isMovementComplete>
    1604:	88 23       	and	r24, r24
    1606:	d1 f3       	breq	.-12     	; 0x15fc <rotate+0x132>
    1608:	27 96       	adiw	r28, 0x07	; 7
    160a:	0f b6       	in	r0, 0x3f	; 63
    160c:	f8 94       	cli
    160e:	de bf       	out	0x3e, r29	; 62
    1610:	0f be       	out	0x3f, r0	; 63
    1612:	cd bf       	out	0x3d, r28	; 61
    1614:	cf 91       	pop	r28
    1616:	df 91       	pop	r29
    1618:	08 95       	ret

0000161a <setMotorPower>:
    161a:	df 93       	push	r29
    161c:	cf 93       	push	r28
    161e:	00 d0       	rcall	.+0      	; 0x1620 <setMotorPower+0x6>
    1620:	cd b7       	in	r28, 0x3d	; 61
    1622:	de b7       	in	r29, 0x3e	; 62
    1624:	89 83       	std	Y+1, r24	; 0x01
    1626:	6a 83       	std	Y+2, r22	; 0x02
    1628:	89 81       	ldd	r24, Y+1	; 0x01
    162a:	83 3d       	cpi	r24, 0xD3	; 211
    162c:	10 f0       	brcs	.+4      	; 0x1632 <setMotorPower+0x18>
    162e:	82 ed       	ldi	r24, 0xD2	; 210
    1630:	89 83       	std	Y+1, r24	; 0x01
    1632:	8a 81       	ldd	r24, Y+2	; 0x02
    1634:	83 3d       	cpi	r24, 0xD3	; 211
    1636:	10 f0       	brcs	.+4      	; 0x163c <setMotorPower+0x22>
    1638:	82 ed       	ldi	r24, 0xD2	; 210
    163a:	8a 83       	std	Y+2, r24	; 0x02
    163c:	8a 81       	ldd	r24, Y+2	; 0x02
    163e:	88 2f       	mov	r24, r24
    1640:	90 e0       	ldi	r25, 0x00	; 0
    1642:	90 93 ba 00 	sts	0x00BA, r25
    1646:	80 93 b9 00 	sts	0x00B9, r24
    164a:	89 81       	ldd	r24, Y+1	; 0x01
    164c:	88 2f       	mov	r24, r24
    164e:	90 e0       	ldi	r25, 0x00	; 0
    1650:	90 93 aa 00 	sts	0x00AA, r25
    1654:	80 93 a9 00 	sts	0x00A9, r24
    1658:	0f 90       	pop	r0
    165a:	0f 90       	pop	r0
    165c:	cf 91       	pop	r28
    165e:	df 91       	pop	r29
    1660:	08 95       	ret

00001662 <setMotorDir>:
    1662:	df 93       	push	r29
    1664:	cf 93       	push	r28
    1666:	00 d0       	rcall	.+0      	; 0x1668 <setMotorDir+0x6>
    1668:	cd b7       	in	r28, 0x3d	; 61
    166a:	de b7       	in	r29, 0x3e	; 62
    166c:	89 83       	std	Y+1, r24	; 0x01
    166e:	6a 83       	std	Y+2, r22	; 0x02
    1670:	89 81       	ldd	r24, Y+1	; 0x01
    1672:	80 93 72 00 	sts	0x0072, r24
    1676:	8a 81       	ldd	r24, Y+2	; 0x02
    1678:	80 93 73 00 	sts	0x0073, r24
    167c:	89 81       	ldd	r24, Y+1	; 0x01
    167e:	80 93 70 00 	sts	0x0070, r24
    1682:	8a 81       	ldd	r24, Y+2	; 0x02
    1684:	80 93 71 00 	sts	0x0071, r24
    1688:	89 81       	ldd	r24, Y+1	; 0x01
    168a:	88 23       	and	r24, r24
    168c:	41 f0       	breq	.+16     	; 0x169e <setMotorDir+0x3c>
    168e:	a5 e3       	ldi	r26, 0x35	; 53
    1690:	b0 e0       	ldi	r27, 0x00	; 0
    1692:	e5 e3       	ldi	r30, 0x35	; 53
    1694:	f0 e0       	ldi	r31, 0x00	; 0
    1696:	80 81       	ld	r24, Z
    1698:	84 60       	ori	r24, 0x04	; 4
    169a:	8c 93       	st	X, r24
    169c:	07 c0       	rjmp	.+14     	; 0x16ac <setMotorDir+0x4a>
    169e:	a5 e3       	ldi	r26, 0x35	; 53
    16a0:	b0 e0       	ldi	r27, 0x00	; 0
    16a2:	e5 e3       	ldi	r30, 0x35	; 53
    16a4:	f0 e0       	ldi	r31, 0x00	; 0
    16a6:	80 81       	ld	r24, Z
    16a8:	8b 7f       	andi	r24, 0xFB	; 251
    16aa:	8c 93       	st	X, r24
    16ac:	8a 81       	ldd	r24, Y+2	; 0x02
    16ae:	88 23       	and	r24, r24
    16b0:	41 f0       	breq	.+16     	; 0x16c2 <setMotorDir+0x60>
    16b2:	a5 e3       	ldi	r26, 0x35	; 53
    16b4:	b0 e0       	ldi	r27, 0x00	; 0
    16b6:	e5 e3       	ldi	r30, 0x35	; 53
    16b8:	f0 e0       	ldi	r31, 0x00	; 0
    16ba:	80 81       	ld	r24, Z
    16bc:	88 60       	ori	r24, 0x08	; 8
    16be:	8c 93       	st	X, r24
    16c0:	07 c0       	rjmp	.+14     	; 0x16d0 <setMotorDir+0x6e>
    16c2:	a5 e3       	ldi	r26, 0x35	; 53
    16c4:	b0 e0       	ldi	r27, 0x00	; 0
    16c6:	e5 e3       	ldi	r30, 0x35	; 53
    16c8:	f0 e0       	ldi	r31, 0x00	; 0
    16ca:	80 81       	ld	r24, Z
    16cc:	87 7f       	andi	r24, 0xF7	; 247
    16ce:	8c 93       	st	X, r24
    16d0:	0f 90       	pop	r0
    16d2:	0f 90       	pop	r0
    16d4:	cf 91       	pop	r28
    16d6:	df 91       	pop	r29
    16d8:	08 95       	ret

000016da <IRCOMM_sendRC5>:
    16da:	df 93       	push	r29
    16dc:	cf 93       	push	r28
    16de:	00 d0       	rcall	.+0      	; 0x16e0 <IRCOMM_sendRC5+0x6>
    16e0:	cd b7       	in	r28, 0x3d	; 61
    16e2:	de b7       	in	r29, 0x3e	; 62
    16e4:	89 83       	std	Y+1, r24	; 0x01
    16e6:	6a 83       	std	Y+2, r22	; 0x02
    16e8:	07 c0       	rjmp	.+14     	; 0x16f8 <IRCOMM_sendRC5+0x1e>
    16ea:	a9 e5       	ldi	r26, 0x59	; 89
    16ec:	b0 e0       	ldi	r27, 0x00	; 0
    16ee:	e9 e5       	ldi	r30, 0x59	; 89
    16f0:	f0 e0       	ldi	r31, 0x00	; 0
    16f2:	80 81       	ld	r24, Z
    16f4:	80 68       	ori	r24, 0x80	; 128
    16f6:	8c 93       	st	X, r24
    16f8:	80 91 9e 00 	lds	r24, 0x009E
    16fc:	88 23       	and	r24, r24
    16fe:	a9 f7       	brne	.-22     	; 0x16ea <IRCOMM_sendRC5+0x10>
    1700:	89 81       	ldd	r24, Y+1	; 0x01
    1702:	88 2f       	mov	r24, r24
    1704:	90 e0       	ldi	r25, 0x00	; 0
    1706:	8f 73       	andi	r24, 0x3F	; 63
    1708:	90 70       	andi	r25, 0x00	; 0
    170a:	9c 01       	movw	r18, r24
    170c:	00 24       	eor	r0, r0
    170e:	36 95       	lsr	r19
    1710:	27 95       	ror	r18
    1712:	07 94       	ror	r0
    1714:	36 95       	lsr	r19
    1716:	27 95       	ror	r18
    1718:	07 94       	ror	r0
    171a:	32 2f       	mov	r19, r18
    171c:	20 2d       	mov	r18, r0
    171e:	8a 81       	ldd	r24, Y+2	; 0x02
    1720:	88 2f       	mov	r24, r24
    1722:	90 e0       	ldi	r25, 0x00	; 0
    1724:	8f 73       	andi	r24, 0x3F	; 63
    1726:	90 70       	andi	r25, 0x00	; 0
    1728:	82 2b       	or	r24, r18
    172a:	93 2b       	or	r25, r19
    172c:	90 63       	ori	r25, 0x30	; 48
    172e:	90 93 be 00 	sts	0x00BE, r25
    1732:	80 93 bd 00 	sts	0x00BD, r24
    1736:	80 91 9d 00 	lds	r24, 0x009D
    173a:	80 64       	ori	r24, 0x40	; 64
    173c:	80 93 9d 00 	sts	0x009D, r24
    1740:	0f 90       	pop	r0
    1742:	0f 90       	pop	r0
    1744:	cf 91       	pop	r28
    1746:	df 91       	pop	r29
    1748:	08 95       	ret

0000174a <__vector_4>:
    174a:	1f 92       	push	r1
    174c:	0f 92       	push	r0
    174e:	0f b6       	in	r0, 0x3f	; 63
    1750:	0f 92       	push	r0
    1752:	11 24       	eor	r1, r1
    1754:	8f 93       	push	r24
    1756:	9f 93       	push	r25
    1758:	af 93       	push	r26
    175a:	bf 93       	push	r27
    175c:	ef 93       	push	r30
    175e:	ff 93       	push	r31
    1760:	df 93       	push	r29
    1762:	cf 93       	push	r28
    1764:	cd b7       	in	r28, 0x3d	; 61
    1766:	de b7       	in	r29, 0x3e	; 62
    1768:	80 91 6b 00 	lds	r24, 0x006B
    176c:	82 30       	cpi	r24, 0x02	; 2
    176e:	08 f0       	brcs	.+2      	; 0x1772 <__vector_4+0x28>
    1770:	65 c0       	rjmp	.+202    	; 0x183c <__vector_4+0xf2>
    1772:	80 91 76 00 	lds	r24, 0x0076
    1776:	88 23       	and	r24, r24
    1778:	d9 f1       	breq	.+118    	; 0x17f0 <__vector_4+0xa6>
    177a:	80 91 76 00 	lds	r24, 0x0076
    177e:	8c 33       	cpi	r24, 0x3C	; 60
    1780:	c8 f4       	brcc	.+50     	; 0x17b4 <__vector_4+0x6a>
    1782:	80 91 d7 00 	lds	r24, 0x00D7
    1786:	90 91 d8 00 	lds	r25, 0x00D8
    178a:	80 70       	andi	r24, 0x00	; 0
    178c:	90 74       	andi	r25, 0x40	; 64
    178e:	00 97       	sbiw	r24, 0x00	; 0
    1790:	49 f0       	breq	.+18     	; 0x17a4 <__vector_4+0x5a>
    1792:	a2 e3       	ldi	r26, 0x32	; 50
    1794:	b0 e0       	ldi	r27, 0x00	; 0
    1796:	e2 e3       	ldi	r30, 0x32	; 50
    1798:	f0 e0       	ldi	r31, 0x00	; 0
    179a:	90 81       	ld	r25, Z
    179c:	80 e8       	ldi	r24, 0x80	; 128
    179e:	89 27       	eor	r24, r25
    17a0:	8c 93       	st	X, r24
    17a2:	20 c0       	rjmp	.+64     	; 0x17e4 <__vector_4+0x9a>
    17a4:	a2 e3       	ldi	r26, 0x32	; 50
    17a6:	b0 e0       	ldi	r27, 0x00	; 0
    17a8:	e2 e3       	ldi	r30, 0x32	; 50
    17aa:	f0 e0       	ldi	r31, 0x00	; 0
    17ac:	80 81       	ld	r24, Z
    17ae:	8f 77       	andi	r24, 0x7F	; 127
    17b0:	8c 93       	st	X, r24
    17b2:	18 c0       	rjmp	.+48     	; 0x17e4 <__vector_4+0x9a>
    17b4:	80 91 d7 00 	lds	r24, 0x00D7
    17b8:	90 91 d8 00 	lds	r25, 0x00D8
    17bc:	80 70       	andi	r24, 0x00	; 0
    17be:	90 74       	andi	r25, 0x40	; 64
    17c0:	00 97       	sbiw	r24, 0x00	; 0
    17c2:	41 f0       	breq	.+16     	; 0x17d4 <__vector_4+0x8a>
    17c4:	a2 e3       	ldi	r26, 0x32	; 50
    17c6:	b0 e0       	ldi	r27, 0x00	; 0
    17c8:	e2 e3       	ldi	r30, 0x32	; 50
    17ca:	f0 e0       	ldi	r31, 0x00	; 0
    17cc:	80 81       	ld	r24, Z
    17ce:	8f 77       	andi	r24, 0x7F	; 127
    17d0:	8c 93       	st	X, r24
    17d2:	08 c0       	rjmp	.+16     	; 0x17e4 <__vector_4+0x9a>
    17d4:	a2 e3       	ldi	r26, 0x32	; 50
    17d6:	b0 e0       	ldi	r27, 0x00	; 0
    17d8:	e2 e3       	ldi	r30, 0x32	; 50
    17da:	f0 e0       	ldi	r31, 0x00	; 0
    17dc:	90 81       	ld	r25, Z
    17de:	80 e8       	ldi	r24, 0x80	; 128
    17e0:	89 27       	eor	r24, r25
    17e2:	8c 93       	st	X, r24
    17e4:	80 91 76 00 	lds	r24, 0x0076
    17e8:	81 50       	subi	r24, 0x01	; 1
    17ea:	80 93 76 00 	sts	0x0076, r24
    17ee:	54 c0       	rjmp	.+168    	; 0x1898 <__vector_4+0x14e>
    17f0:	80 91 9e 00 	lds	r24, 0x009E
    17f4:	88 23       	and	r24, r24
    17f6:	d1 f0       	breq	.+52     	; 0x182c <__vector_4+0xe2>
    17f8:	a2 e3       	ldi	r26, 0x32	; 50
    17fa:	b0 e0       	ldi	r27, 0x00	; 0
    17fc:	e2 e3       	ldi	r30, 0x32	; 50
    17fe:	f0 e0       	ldi	r31, 0x00	; 0
    1800:	80 81       	ld	r24, Z
    1802:	8f 77       	andi	r24, 0x7F	; 127
    1804:	8c 93       	st	X, r24
    1806:	80 91 d7 00 	lds	r24, 0x00D7
    180a:	90 91 d8 00 	lds	r25, 0x00D8
    180e:	88 0f       	add	r24, r24
    1810:	99 1f       	adc	r25, r25
    1812:	90 93 d8 00 	sts	0x00D8, r25
    1816:	80 93 d7 00 	sts	0x00D7, r24
    181a:	88 e7       	ldi	r24, 0x78	; 120
    181c:	80 93 76 00 	sts	0x0076, r24
    1820:	80 91 9e 00 	lds	r24, 0x009E
    1824:	81 50       	subi	r24, 0x01	; 1
    1826:	80 93 9e 00 	sts	0x009E, r24
    182a:	36 c0       	rjmp	.+108    	; 0x1898 <__vector_4+0x14e>
    182c:	a2 e3       	ldi	r26, 0x32	; 50
    182e:	b0 e0       	ldi	r27, 0x00	; 0
    1830:	e2 e3       	ldi	r30, 0x32	; 50
    1832:	f0 e0       	ldi	r31, 0x00	; 0
    1834:	80 81       	ld	r24, Z
    1836:	8f 77       	andi	r24, 0x7F	; 127
    1838:	8c 93       	st	X, r24
    183a:	2e c0       	rjmp	.+92     	; 0x1898 <__vector_4+0x14e>
    183c:	80 91 a2 00 	lds	r24, 0x00A2
    1840:	88 23       	and	r24, r24
    1842:	e1 f0       	breq	.+56     	; 0x187c <__vector_4+0x132>
    1844:	80 91 9d 00 	lds	r24, 0x009D
    1848:	81 70       	andi	r24, 0x01	; 1
    184a:	88 23       	and	r24, r24
    184c:	49 f4       	brne	.+18     	; 0x1860 <__vector_4+0x116>
    184e:	a8 e3       	ldi	r26, 0x38	; 56
    1850:	b0 e0       	ldi	r27, 0x00	; 0
    1852:	e8 e3       	ldi	r30, 0x38	; 56
    1854:	f0 e0       	ldi	r31, 0x00	; 0
    1856:	90 81       	ld	r25, Z
    1858:	80 e4       	ldi	r24, 0x40	; 64
    185a:	89 27       	eor	r24, r25
    185c:	8c 93       	st	X, r24
    185e:	08 c0       	rjmp	.+16     	; 0x1870 <__vector_4+0x126>
    1860:	a5 e3       	ldi	r26, 0x35	; 53
    1862:	b0 e0       	ldi	r27, 0x00	; 0
    1864:	e5 e3       	ldi	r30, 0x35	; 53
    1866:	f0 e0       	ldi	r31, 0x00	; 0
    1868:	90 81       	ld	r25, Z
    186a:	80 e8       	ldi	r24, 0x80	; 128
    186c:	89 27       	eor	r24, r25
    186e:	8c 93       	st	X, r24
    1870:	80 91 a2 00 	lds	r24, 0x00A2
    1874:	81 50       	subi	r24, 0x01	; 1
    1876:	80 93 a2 00 	sts	0x00A2, r24
    187a:	0e c0       	rjmp	.+28     	; 0x1898 <__vector_4+0x14e>
    187c:	a8 e3       	ldi	r26, 0x38	; 56
    187e:	b0 e0       	ldi	r27, 0x00	; 0
    1880:	e8 e3       	ldi	r30, 0x38	; 56
    1882:	f0 e0       	ldi	r31, 0x00	; 0
    1884:	80 81       	ld	r24, Z
    1886:	80 64       	ori	r24, 0x40	; 64
    1888:	8c 93       	st	X, r24
    188a:	a5 e3       	ldi	r26, 0x35	; 53
    188c:	b0 e0       	ldi	r27, 0x00	; 0
    188e:	e5 e3       	ldi	r30, 0x35	; 53
    1890:	f0 e0       	ldi	r31, 0x00	; 0
    1892:	80 81       	ld	r24, Z
    1894:	80 68       	ori	r24, 0x80	; 128
    1896:	8c 93       	st	X, r24
    1898:	cf 91       	pop	r28
    189a:	df 91       	pop	r29
    189c:	ff 91       	pop	r31
    189e:	ef 91       	pop	r30
    18a0:	bf 91       	pop	r27
    18a2:	af 91       	pop	r26
    18a4:	9f 91       	pop	r25
    18a6:	8f 91       	pop	r24
    18a8:	0f 90       	pop	r0
    18aa:	0f be       	out	0x3f, r0	; 63
    18ac:	0f 90       	pop	r0
    18ae:	1f 90       	pop	r1
    18b0:	18 95       	reti

000018b2 <__vector_3>:
    18b2:	1f 92       	push	r1
    18b4:	0f 92       	push	r0
    18b6:	0f b6       	in	r0, 0x3f	; 63
    18b8:	0f 92       	push	r0
    18ba:	11 24       	eor	r1, r1
    18bc:	8f 93       	push	r24
    18be:	9f 93       	push	r25
    18c0:	ef 93       	push	r30
    18c2:	ff 93       	push	r31
    18c4:	df 93       	push	r29
    18c6:	cf 93       	push	r28
    18c8:	0f 92       	push	r0
    18ca:	cd b7       	in	r28, 0x3d	; 61
    18cc:	de b7       	in	r29, 0x3e	; 62
    18ce:	80 91 6b 00 	lds	r24, 0x006B
    18d2:	83 30       	cpi	r24, 0x03	; 3
    18d4:	21 f0       	breq	.+8      	; 0x18de <__vector_3+0x2c>
    18d6:	80 91 6b 00 	lds	r24, 0x006B
    18da:	86 30       	cpi	r24, 0x06	; 6
    18dc:	c1 f4       	brne	.+48     	; 0x190e <__vector_3+0x5c>
    18de:	80 91 9d 00 	lds	r24, 0x009D
    18e2:	80 71       	andi	r24, 0x10	; 16
    18e4:	88 23       	and	r24, r24
    18e6:	99 f4       	brne	.+38     	; 0x190e <__vector_3+0x5c>
    18e8:	80 91 9d 00 	lds	r24, 0x009D
    18ec:	80 72       	andi	r24, 0x20	; 32
    18ee:	88 23       	and	r24, r24
    18f0:	71 f0       	breq	.+28     	; 0x190e <__vector_3+0x5c>
    18f2:	e6 e3       	ldi	r30, 0x36	; 54
    18f4:	f0 e0       	ldi	r31, 0x00	; 0
    18f6:	80 81       	ld	r24, Z
    18f8:	88 2f       	mov	r24, r24
    18fa:	90 e0       	ldi	r25, 0x00	; 0
    18fc:	84 70       	andi	r24, 0x04	; 4
    18fe:	90 70       	andi	r25, 0x00	; 0
    1900:	00 97       	sbiw	r24, 0x00	; 0
    1902:	29 f4       	brne	.+10     	; 0x190e <__vector_3+0x5c>
    1904:	80 91 f2 00 	lds	r24, 0x00F2
    1908:	8f 5f       	subi	r24, 0xFF	; 255
    190a:	80 93 f2 00 	sts	0x00F2, r24
    190e:	e6 e3       	ldi	r30, 0x36	; 54
    1910:	f0 e0       	ldi	r31, 0x00	; 0
    1912:	80 81       	ld	r24, Z
    1914:	80 91 9d 00 	lds	r24, 0x009D
    1918:	8d 7f       	andi	r24, 0xFD	; 253
    191a:	80 93 9d 00 	sts	0x009D, r24
    191e:	0f 90       	pop	r0
    1920:	cf 91       	pop	r28
    1922:	df 91       	pop	r29
    1924:	ff 91       	pop	r31
    1926:	ef 91       	pop	r30
    1928:	9f 91       	pop	r25
    192a:	8f 91       	pop	r24
    192c:	0f 90       	pop	r0
    192e:	0f be       	out	0x3f, r0	; 63
    1930:	0f 90       	pop	r0
    1932:	1f 90       	pop	r1
    1934:	18 95       	reti

00001936 <IRCOMM_RC5dataReady_DUMMY>:
    1936:	df 93       	push	r29
    1938:	cf 93       	push	r28
    193a:	00 d0       	rcall	.+0      	; 0x193c <IRCOMM_RC5dataReady_DUMMY+0x6>
    193c:	cd b7       	in	r28, 0x3d	; 61
    193e:	de b7       	in	r29, 0x3e	; 62
    1940:	9a 83       	std	Y+2, r25	; 0x02
    1942:	89 83       	std	Y+1, r24	; 0x01
    1944:	0f 90       	pop	r0
    1946:	0f 90       	pop	r0
    1948:	cf 91       	pop	r28
    194a:	df 91       	pop	r29
    194c:	08 95       	ret

0000194e <IRCOMM_setRC5DataReadyHandler>:
    194e:	df 93       	push	r29
    1950:	cf 93       	push	r28
    1952:	00 d0       	rcall	.+0      	; 0x1954 <IRCOMM_setRC5DataReadyHandler+0x6>
    1954:	cd b7       	in	r28, 0x3d	; 61
    1956:	de b7       	in	r29, 0x3e	; 62
    1958:	9a 83       	std	Y+2, r25	; 0x02
    195a:	89 83       	std	Y+1, r24	; 0x01
    195c:	89 81       	ldd	r24, Y+1	; 0x01
    195e:	9a 81       	ldd	r25, Y+2	; 0x02
    1960:	90 93 6d 00 	sts	0x006D, r25
    1964:	80 93 6c 00 	sts	0x006C, r24
    1968:	0f 90       	pop	r0
    196a:	0f 90       	pop	r0
    196c:	cf 91       	pop	r28
    196e:	df 91       	pop	r29
    1970:	08 95       	ret

00001972 <ACS_stateChanged_DUMMY>:
    1972:	df 93       	push	r29
    1974:	cf 93       	push	r28
    1976:	cd b7       	in	r28, 0x3d	; 61
    1978:	de b7       	in	r29, 0x3e	; 62
    197a:	cf 91       	pop	r28
    197c:	df 91       	pop	r29
    197e:	08 95       	ret

00001980 <ACS_setStateChangedHandler>:
    1980:	df 93       	push	r29
    1982:	cf 93       	push	r28
    1984:	00 d0       	rcall	.+0      	; 0x1986 <ACS_setStateChangedHandler+0x6>
    1986:	cd b7       	in	r28, 0x3d	; 61
    1988:	de b7       	in	r29, 0x3e	; 62
    198a:	9a 83       	std	Y+2, r25	; 0x02
    198c:	89 83       	std	Y+1, r24	; 0x01
    198e:	89 81       	ldd	r24, Y+1	; 0x01
    1990:	9a 81       	ldd	r25, Y+2	; 0x02
    1992:	90 93 6f 00 	sts	0x006F, r25
    1996:	80 93 6e 00 	sts	0x006E, r24
    199a:	0f 90       	pop	r0
    199c:	0f 90       	pop	r0
    199e:	cf 91       	pop	r28
    19a0:	df 91       	pop	r29
    19a2:	08 95       	ret

000019a4 <task_ACS>:
    19a4:	df 93       	push	r29
    19a6:	cf 93       	push	r28
    19a8:	cd b7       	in	r28, 0x3d	; 61
    19aa:	de b7       	in	r29, 0x3e	; 62
    19ac:	2e 97       	sbiw	r28, 0x0e	; 14
    19ae:	0f b6       	in	r0, 0x3f	; 63
    19b0:	f8 94       	cli
    19b2:	de bf       	out	0x3e, r29	; 62
    19b4:	0f be       	out	0x3f, r0	; 63
    19b6:	cd bf       	out	0x3d, r28	; 61
    19b8:	80 91 b5 00 	lds	r24, 0x00B5
    19bc:	90 91 b6 00 	lds	r25, 0x00B6
    19c0:	82 30       	cpi	r24, 0x02	; 2
    19c2:	91 05       	cpc	r25, r1
    19c4:	08 f4       	brcc	.+2      	; 0x19c8 <task_ACS+0x24>
    19c6:	4d c2       	rjmp	.+1178   	; 0x1e62 <task_ACS+0x4be>
    19c8:	80 91 9d 00 	lds	r24, 0x009D
    19cc:	80 71       	andi	r24, 0x10	; 16
    19ce:	88 23       	and	r24, r24
    19d0:	09 f0       	breq	.+2      	; 0x19d4 <task_ACS+0x30>
    19d2:	24 c2       	rjmp	.+1096   	; 0x1e1c <task_ACS+0x478>
    19d4:	80 91 6b 00 	lds	r24, 0x006B
    19d8:	28 2f       	mov	r18, r24
    19da:	30 e0       	ldi	r19, 0x00	; 0
    19dc:	3e 87       	std	Y+14, r19	; 0x0e
    19de:	2d 87       	std	Y+13, r18	; 0x0d
    19e0:	8d 85       	ldd	r24, Y+13	; 0x0d
    19e2:	9e 85       	ldd	r25, Y+14	; 0x0e
    19e4:	82 30       	cpi	r24, 0x02	; 2
    19e6:	91 05       	cpc	r25, r1
    19e8:	09 f4       	brne	.+2      	; 0x19ec <task_ACS+0x48>
    19ea:	b9 c0       	rjmp	.+370    	; 0x1b5e <task_ACS+0x1ba>
    19ec:	2d 85       	ldd	r18, Y+13	; 0x0d
    19ee:	3e 85       	ldd	r19, Y+14	; 0x0e
    19f0:	23 30       	cpi	r18, 0x03	; 3
    19f2:	31 05       	cpc	r19, r1
    19f4:	54 f4       	brge	.+20     	; 0x1a0a <task_ACS+0x66>
    19f6:	8d 85       	ldd	r24, Y+13	; 0x0d
    19f8:	9e 85       	ldd	r25, Y+14	; 0x0e
    19fa:	00 97       	sbiw	r24, 0x00	; 0
    19fc:	c9 f0       	breq	.+50     	; 0x1a30 <task_ACS+0x8c>
    19fe:	2d 85       	ldd	r18, Y+13	; 0x0d
    1a00:	3e 85       	ldd	r19, Y+14	; 0x0e
    1a02:	21 30       	cpi	r18, 0x01	; 1
    1a04:	31 05       	cpc	r19, r1
    1a06:	89 f1       	breq	.+98     	; 0x1a6a <task_ACS+0xc6>
    1a08:	0f c2       	rjmp	.+1054   	; 0x1e28 <task_ACS+0x484>
    1a0a:	8d 85       	ldd	r24, Y+13	; 0x0d
    1a0c:	9e 85       	ldd	r25, Y+14	; 0x0e
    1a0e:	85 30       	cpi	r24, 0x05	; 5
    1a10:	91 05       	cpc	r25, r1
    1a12:	09 f4       	brne	.+2      	; 0x1a16 <task_ACS+0x72>
    1a14:	54 c1       	rjmp	.+680    	; 0x1cbe <task_ACS+0x31a>
    1a16:	2d 85       	ldd	r18, Y+13	; 0x0d
    1a18:	3e 85       	ldd	r19, Y+14	; 0x0e
    1a1a:	26 30       	cpi	r18, 0x06	; 6
    1a1c:	31 05       	cpc	r19, r1
    1a1e:	09 f4       	brne	.+2      	; 0x1a22 <task_ACS+0x7e>
    1a20:	83 c1       	rjmp	.+774    	; 0x1d28 <task_ACS+0x384>
    1a22:	8d 85       	ldd	r24, Y+13	; 0x0d
    1a24:	9e 85       	ldd	r25, Y+14	; 0x0e
    1a26:	83 30       	cpi	r24, 0x03	; 3
    1a28:	91 05       	cpc	r25, r1
    1a2a:	09 f4       	brne	.+2      	; 0x1a2e <task_ACS+0x8a>
    1a2c:	cd c0       	rjmp	.+410    	; 0x1bc8 <task_ACS+0x224>
    1a2e:	fc c1       	rjmp	.+1016   	; 0x1e28 <task_ACS+0x484>
    1a30:	a9 e5       	ldi	r26, 0x59	; 89
    1a32:	b0 e0       	ldi	r27, 0x00	; 0
    1a34:	e9 e5       	ldi	r30, 0x59	; 89
    1a36:	f0 e0       	ldi	r31, 0x00	; 0
    1a38:	80 81       	ld	r24, Z
    1a3a:	8f 77       	andi	r24, 0x7F	; 127
    1a3c:	8c 93       	st	X, r24
    1a3e:	a2 e3       	ldi	r26, 0x32	; 50
    1a40:	b0 e0       	ldi	r27, 0x00	; 0
    1a42:	e2 e3       	ldi	r30, 0x32	; 50
    1a44:	f0 e0       	ldi	r31, 0x00	; 0
    1a46:	80 81       	ld	r24, Z
    1a48:	8f 77       	andi	r24, 0x7F	; 127
    1a4a:	8c 93       	st	X, r24
    1a4c:	a8 e3       	ldi	r26, 0x38	; 56
    1a4e:	b0 e0       	ldi	r27, 0x00	; 0
    1a50:	e8 e3       	ldi	r30, 0x38	; 56
    1a52:	f0 e0       	ldi	r31, 0x00	; 0
    1a54:	80 81       	ld	r24, Z
    1a56:	80 64       	ori	r24, 0x40	; 64
    1a58:	8c 93       	st	X, r24
    1a5a:	a5 e3       	ldi	r26, 0x35	; 53
    1a5c:	b0 e0       	ldi	r27, 0x00	; 0
    1a5e:	e5 e3       	ldi	r30, 0x35	; 53
    1a60:	f0 e0       	ldi	r31, 0x00	; 0
    1a62:	80 81       	ld	r24, Z
    1a64:	80 68       	ori	r24, 0x80	; 128
    1a66:	8c 93       	st	X, r24
    1a68:	df c1       	rjmp	.+958    	; 0x1e28 <task_ACS+0x484>
    1a6a:	80 91 9e 00 	lds	r24, 0x009E
    1a6e:	88 23       	and	r24, r24
    1a70:	09 f0       	breq	.+2      	; 0x1a74 <task_ACS+0xd0>
    1a72:	4d c0       	rjmp	.+154    	; 0x1b0e <task_ACS+0x16a>
    1a74:	80 91 9d 00 	lds	r24, 0x009D
    1a78:	80 74       	andi	r24, 0x40	; 64
    1a7a:	88 23       	and	r24, r24
    1a7c:	c1 f0       	breq	.+48     	; 0x1aae <task_ACS+0x10a>
    1a7e:	80 91 bd 00 	lds	r24, 0x00BD
    1a82:	90 91 be 00 	lds	r25, 0x00BE
    1a86:	90 93 d8 00 	sts	0x00D8, r25
    1a8a:	80 93 d7 00 	sts	0x00D7, r24
    1a8e:	8e e0       	ldi	r24, 0x0E	; 14
    1a90:	80 93 9e 00 	sts	0x009E, r24
    1a94:	80 91 9d 00 	lds	r24, 0x009D
    1a98:	8f 7b       	andi	r24, 0xBF	; 191
    1a9a:	80 93 9d 00 	sts	0x009D, r24
    1a9e:	a9 e5       	ldi	r26, 0x59	; 89
    1aa0:	b0 e0       	ldi	r27, 0x00	; 0
    1aa2:	e9 e5       	ldi	r30, 0x59	; 89
    1aa4:	f0 e0       	ldi	r31, 0x00	; 0
    1aa6:	80 81       	ld	r24, Z
    1aa8:	80 68       	ori	r24, 0x80	; 128
    1aaa:	8c 93       	st	X, r24
    1aac:	1c c0       	rjmp	.+56     	; 0x1ae6 <task_ACS+0x142>
    1aae:	a9 e5       	ldi	r26, 0x59	; 89
    1ab0:	b0 e0       	ldi	r27, 0x00	; 0
    1ab2:	e9 e5       	ldi	r30, 0x59	; 89
    1ab4:	f0 e0       	ldi	r31, 0x00	; 0
    1ab6:	80 81       	ld	r24, Z
    1ab8:	8f 77       	andi	r24, 0x7F	; 127
    1aba:	8c 93       	st	X, r24
    1abc:	a2 e3       	ldi	r26, 0x32	; 50
    1abe:	b0 e0       	ldi	r27, 0x00	; 0
    1ac0:	e2 e3       	ldi	r30, 0x32	; 50
    1ac2:	f0 e0       	ldi	r31, 0x00	; 0
    1ac4:	80 81       	ld	r24, Z
    1ac6:	8f 77       	andi	r24, 0x7F	; 127
    1ac8:	8c 93       	st	X, r24
    1aca:	a8 e3       	ldi	r26, 0x38	; 56
    1acc:	b0 e0       	ldi	r27, 0x00	; 0
    1ace:	e8 e3       	ldi	r30, 0x38	; 56
    1ad0:	f0 e0       	ldi	r31, 0x00	; 0
    1ad2:	80 81       	ld	r24, Z
    1ad4:	80 64       	ori	r24, 0x40	; 64
    1ad6:	8c 93       	st	X, r24
    1ad8:	a5 e3       	ldi	r26, 0x35	; 53
    1ada:	b0 e0       	ldi	r27, 0x00	; 0
    1adc:	e5 e3       	ldi	r30, 0x35	; 53
    1ade:	f0 e0       	ldi	r31, 0x00	; 0
    1ae0:	80 81       	ld	r24, Z
    1ae2:	80 68       	ori	r24, 0x80	; 128
    1ae4:	8c 93       	st	X, r24
    1ae6:	90 91 7b 00 	lds	r25, 0x007B
    1aea:	9c 87       	std	Y+12, r25	; 0x0c
    1aec:	1b 86       	std	Y+11, r1	; 0x0b
    1aee:	2c 85       	ldd	r18, Y+12	; 0x0c
    1af0:	24 31       	cpi	r18, 0x14	; 20
    1af2:	10 f0       	brcs	.+4      	; 0x1af8 <task_ACS+0x154>
    1af4:	31 e0       	ldi	r19, 0x01	; 1
    1af6:	3b 87       	std	Y+11, r19	; 0x0b
    1af8:	8c 85       	ldd	r24, Y+12	; 0x0c
    1afa:	8f 5f       	subi	r24, 0xFF	; 255
    1afc:	80 93 7b 00 	sts	0x007B, r24
    1b00:	8b 85       	ldd	r24, Y+11	; 0x0b
    1b02:	88 23       	and	r24, r24
    1b04:	59 f0       	breq	.+22     	; 0x1b1c <task_ACS+0x178>
    1b06:	82 e0       	ldi	r24, 0x02	; 2
    1b08:	80 93 6b 00 	sts	0x006B, r24
    1b0c:	07 c0       	rjmp	.+14     	; 0x1b1c <task_ACS+0x178>
    1b0e:	a9 e5       	ldi	r26, 0x59	; 89
    1b10:	b0 e0       	ldi	r27, 0x00	; 0
    1b12:	e9 e5       	ldi	r30, 0x59	; 89
    1b14:	f0 e0       	ldi	r31, 0x00	; 0
    1b16:	80 81       	ld	r24, Z
    1b18:	80 68       	ori	r24, 0x80	; 128
    1b1a:	8c 93       	st	X, r24
    1b1c:	80 91 9d 00 	lds	r24, 0x009D
    1b20:	88 70       	andi	r24, 0x08	; 8
    1b22:	88 23       	and	r24, r24
    1b24:	09 f4       	brne	.+2      	; 0x1b28 <task_ACS+0x184>
    1b26:	80 c1       	rjmp	.+768    	; 0x1e28 <task_ACS+0x484>
    1b28:	e0 91 6c 00 	lds	r30, 0x006C
    1b2c:	f0 91 6d 00 	lds	r31, 0x006D
    1b30:	80 91 f6 00 	lds	r24, 0x00F6
    1b34:	90 91 f7 00 	lds	r25, 0x00F7
    1b38:	09 95       	icall
    1b3a:	80 91 f6 00 	lds	r24, 0x00F6
    1b3e:	90 91 f7 00 	lds	r25, 0x00F7
    1b42:	90 93 a6 00 	sts	0x00A6, r25
    1b46:	80 93 a5 00 	sts	0x00A5, r24
    1b4a:	10 92 f7 00 	sts	0x00F7, r1
    1b4e:	10 92 f6 00 	sts	0x00F6, r1
    1b52:	80 91 9d 00 	lds	r24, 0x009D
    1b56:	87 7f       	andi	r24, 0xF7	; 247
    1b58:	80 93 9d 00 	sts	0x009D, r24
    1b5c:	65 c1       	rjmp	.+714    	; 0x1e28 <task_ACS+0x484>
    1b5e:	a9 e5       	ldi	r26, 0x59	; 89
    1b60:	b0 e0       	ldi	r27, 0x00	; 0
    1b62:	e9 e5       	ldi	r30, 0x59	; 89
    1b64:	f0 e0       	ldi	r31, 0x00	; 0
    1b66:	80 81       	ld	r24, Z
    1b68:	8f 77       	andi	r24, 0x7F	; 127
    1b6a:	8c 93       	st	X, r24
    1b6c:	a2 e3       	ldi	r26, 0x32	; 50
    1b6e:	b0 e0       	ldi	r27, 0x00	; 0
    1b70:	e2 e3       	ldi	r30, 0x32	; 50
    1b72:	f0 e0       	ldi	r31, 0x00	; 0
    1b74:	80 81       	ld	r24, Z
    1b76:	8f 77       	andi	r24, 0x7F	; 127
    1b78:	8c 93       	st	X, r24
    1b7a:	a8 e3       	ldi	r26, 0x38	; 56
    1b7c:	b0 e0       	ldi	r27, 0x00	; 0
    1b7e:	e8 e3       	ldi	r30, 0x38	; 56
    1b80:	f0 e0       	ldi	r31, 0x00	; 0
    1b82:	80 81       	ld	r24, Z
    1b84:	80 64       	ori	r24, 0x40	; 64
    1b86:	8c 93       	st	X, r24
    1b88:	a5 e3       	ldi	r26, 0x35	; 53
    1b8a:	b0 e0       	ldi	r27, 0x00	; 0
    1b8c:	e5 e3       	ldi	r30, 0x35	; 53
    1b8e:	f0 e0       	ldi	r31, 0x00	; 0
    1b90:	80 81       	ld	r24, Z
    1b92:	80 68       	ori	r24, 0x80	; 128
    1b94:	8c 93       	st	X, r24
    1b96:	10 92 a2 00 	sts	0x00A2, r1
    1b9a:	10 92 f2 00 	sts	0x00F2, r1
    1b9e:	10 92 7a 00 	sts	0x007A, r1
    1ba2:	10 92 79 00 	sts	0x0079, r1
    1ba6:	80 91 9d 00 	lds	r24, 0x009D
    1baa:	8e 7f       	andi	r24, 0xFE	; 254
    1bac:	80 93 9d 00 	sts	0x009D, r24
    1bb0:	80 91 9d 00 	lds	r24, 0x009D
    1bb4:	80 62       	ori	r24, 0x20	; 32
    1bb6:	80 93 9d 00 	sts	0x009D, r24
    1bba:	83 e0       	ldi	r24, 0x03	; 3
    1bbc:	80 93 7b 00 	sts	0x007B, r24
    1bc0:	83 e0       	ldi	r24, 0x03	; 3
    1bc2:	80 93 6b 00 	sts	0x006B, r24
    1bc6:	30 c1       	rjmp	.+608    	; 0x1e28 <task_ACS+0x484>
    1bc8:	80 91 a2 00 	lds	r24, 0x00A2
    1bcc:	88 23       	and	r24, r24
    1bce:	e1 f4       	brne	.+56     	; 0x1c08 <task_ACS+0x264>
    1bd0:	90 91 7b 00 	lds	r25, 0x007B
    1bd4:	9a 87       	std	Y+10, r25	; 0x0a
    1bd6:	19 86       	std	Y+9, r1	; 0x09
    1bd8:	2a 85       	ldd	r18, Y+10	; 0x0a
    1bda:	23 30       	cpi	r18, 0x03	; 3
    1bdc:	10 f0       	brcs	.+4      	; 0x1be2 <task_ACS+0x23e>
    1bde:	31 e0       	ldi	r19, 0x01	; 1
    1be0:	39 87       	std	Y+9, r19	; 0x09
    1be2:	8a 85       	ldd	r24, Y+10	; 0x0a
    1be4:	8f 5f       	subi	r24, 0xFF	; 255
    1be6:	80 93 7b 00 	sts	0x007B, r24
    1bea:	89 85       	ldd	r24, Y+9	; 0x09
    1bec:	88 23       	and	r24, r24
    1bee:	61 f0       	breq	.+24     	; 0x1c08 <task_ACS+0x264>
    1bf0:	a9 e5       	ldi	r26, 0x59	; 89
    1bf2:	b0 e0       	ldi	r27, 0x00	; 0
    1bf4:	e9 e5       	ldi	r30, 0x59	; 89
    1bf6:	f0 e0       	ldi	r31, 0x00	; 0
    1bf8:	80 81       	ld	r24, Z
    1bfa:	80 68       	ori	r24, 0x80	; 128
    1bfc:	8c 93       	st	X, r24
    1bfe:	88 e2       	ldi	r24, 0x28	; 40
    1c00:	80 93 a2 00 	sts	0x00A2, r24
    1c04:	10 92 7b 00 	sts	0x007B, r1
    1c08:	80 91 d3 00 	lds	r24, 0x00D3
    1c0c:	88 23       	and	r24, r24
    1c0e:	69 f0       	breq	.+26     	; 0x1c2a <task_ACS+0x286>
    1c10:	80 91 f2 00 	lds	r24, 0x00F2
    1c14:	82 30       	cpi	r24, 0x02	; 2
    1c16:	48 f0       	brcs	.+18     	; 0x1c2a <task_ACS+0x286>
    1c18:	10 92 f2 00 	sts	0x00F2, r1
    1c1c:	81 e0       	ldi	r24, 0x01	; 1
    1c1e:	80 93 d3 00 	sts	0x00D3, r24
    1c22:	85 e0       	ldi	r24, 0x05	; 5
    1c24:	80 93 6b 00 	sts	0x006B, r24
    1c28:	ff c0       	rjmp	.+510    	; 0x1e28 <task_ACS+0x484>
    1c2a:	80 91 f2 00 	lds	r24, 0x00F2
    1c2e:	86 30       	cpi	r24, 0x06	; 6
    1c30:	48 f0       	brcs	.+18     	; 0x1c44 <task_ACS+0x2a0>
    1c32:	10 92 f2 00 	sts	0x00F2, r1
    1c36:	81 e0       	ldi	r24, 0x01	; 1
    1c38:	80 93 d3 00 	sts	0x00D3, r24
    1c3c:	85 e0       	ldi	r24, 0x05	; 5
    1c3e:	80 93 6b 00 	sts	0x006B, r24
    1c42:	f2 c0       	rjmp	.+484    	; 0x1e28 <task_ACS+0x484>
    1c44:	20 91 79 00 	lds	r18, 0x0079
    1c48:	30 91 7a 00 	lds	r19, 0x007A
    1c4c:	38 87       	std	Y+8, r19	; 0x08
    1c4e:	2f 83       	std	Y+7, r18	; 0x07
    1c50:	1e 82       	std	Y+6, r1	; 0x06
    1c52:	8f 81       	ldd	r24, Y+7	; 0x07
    1c54:	98 85       	ldd	r25, Y+8	; 0x08
    1c56:	8e 30       	cpi	r24, 0x0E	; 14
    1c58:	91 05       	cpc	r25, r1
    1c5a:	10 f0       	brcs	.+4      	; 0x1c60 <task_ACS+0x2bc>
    1c5c:	91 e0       	ldi	r25, 0x01	; 1
    1c5e:	9e 83       	std	Y+6, r25	; 0x06
    1c60:	8f 81       	ldd	r24, Y+7	; 0x07
    1c62:	98 85       	ldd	r25, Y+8	; 0x08
    1c64:	01 96       	adiw	r24, 0x01	; 1
    1c66:	90 93 7a 00 	sts	0x007A, r25
    1c6a:	80 93 79 00 	sts	0x0079, r24
    1c6e:	2e 81       	ldd	r18, Y+6	; 0x06
    1c70:	22 23       	and	r18, r18
    1c72:	09 f4       	brne	.+2      	; 0x1c76 <task_ACS+0x2d2>
    1c74:	d9 c0       	rjmp	.+434    	; 0x1e28 <task_ACS+0x484>
    1c76:	10 92 d3 00 	sts	0x00D3, r1
    1c7a:	85 e0       	ldi	r24, 0x05	; 5
    1c7c:	80 93 6b 00 	sts	0x006B, r24
    1c80:	a9 e5       	ldi	r26, 0x59	; 89
    1c82:	b0 e0       	ldi	r27, 0x00	; 0
    1c84:	e9 e5       	ldi	r30, 0x59	; 89
    1c86:	f0 e0       	ldi	r31, 0x00	; 0
    1c88:	80 81       	ld	r24, Z
    1c8a:	8f 77       	andi	r24, 0x7F	; 127
    1c8c:	8c 93       	st	X, r24
    1c8e:	a2 e3       	ldi	r26, 0x32	; 50
    1c90:	b0 e0       	ldi	r27, 0x00	; 0
    1c92:	e2 e3       	ldi	r30, 0x32	; 50
    1c94:	f0 e0       	ldi	r31, 0x00	; 0
    1c96:	80 81       	ld	r24, Z
    1c98:	8f 77       	andi	r24, 0x7F	; 127
    1c9a:	8c 93       	st	X, r24
    1c9c:	a8 e3       	ldi	r26, 0x38	; 56
    1c9e:	b0 e0       	ldi	r27, 0x00	; 0
    1ca0:	e8 e3       	ldi	r30, 0x38	; 56
    1ca2:	f0 e0       	ldi	r31, 0x00	; 0
    1ca4:	80 81       	ld	r24, Z
    1ca6:	80 64       	ori	r24, 0x40	; 64
    1ca8:	8c 93       	st	X, r24
    1caa:	a5 e3       	ldi	r26, 0x35	; 53
    1cac:	b0 e0       	ldi	r27, 0x00	; 0
    1cae:	e5 e3       	ldi	r30, 0x35	; 53
    1cb0:	f0 e0       	ldi	r31, 0x00	; 0
    1cb2:	80 81       	ld	r24, Z
    1cb4:	80 68       	ori	r24, 0x80	; 128
    1cb6:	8c 93       	st	X, r24
    1cb8:	10 92 a2 00 	sts	0x00A2, r1
    1cbc:	b5 c0       	rjmp	.+362    	; 0x1e28 <task_ACS+0x484>
    1cbe:	a9 e5       	ldi	r26, 0x59	; 89
    1cc0:	b0 e0       	ldi	r27, 0x00	; 0
    1cc2:	e9 e5       	ldi	r30, 0x59	; 89
    1cc4:	f0 e0       	ldi	r31, 0x00	; 0
    1cc6:	80 81       	ld	r24, Z
    1cc8:	8f 77       	andi	r24, 0x7F	; 127
    1cca:	8c 93       	st	X, r24
    1ccc:	a2 e3       	ldi	r26, 0x32	; 50
    1cce:	b0 e0       	ldi	r27, 0x00	; 0
    1cd0:	e2 e3       	ldi	r30, 0x32	; 50
    1cd2:	f0 e0       	ldi	r31, 0x00	; 0
    1cd4:	80 81       	ld	r24, Z
    1cd6:	8f 77       	andi	r24, 0x7F	; 127
    1cd8:	8c 93       	st	X, r24
    1cda:	a8 e3       	ldi	r26, 0x38	; 56
    1cdc:	b0 e0       	ldi	r27, 0x00	; 0
    1cde:	e8 e3       	ldi	r30, 0x38	; 56
    1ce0:	f0 e0       	ldi	r31, 0x00	; 0
    1ce2:	80 81       	ld	r24, Z
    1ce4:	80 64       	ori	r24, 0x40	; 64
    1ce6:	8c 93       	st	X, r24
    1ce8:	a5 e3       	ldi	r26, 0x35	; 53
    1cea:	b0 e0       	ldi	r27, 0x00	; 0
    1cec:	e5 e3       	ldi	r30, 0x35	; 53
    1cee:	f0 e0       	ldi	r31, 0x00	; 0
    1cf0:	80 81       	ld	r24, Z
    1cf2:	80 68       	ori	r24, 0x80	; 128
    1cf4:	8c 93       	st	X, r24
    1cf6:	10 92 a2 00 	sts	0x00A2, r1
    1cfa:	10 92 f2 00 	sts	0x00F2, r1
    1cfe:	10 92 7a 00 	sts	0x007A, r1
    1d02:	10 92 79 00 	sts	0x0079, r1
    1d06:	80 91 9d 00 	lds	r24, 0x009D
    1d0a:	81 60       	ori	r24, 0x01	; 1
    1d0c:	80 93 9d 00 	sts	0x009D, r24
    1d10:	80 91 9d 00 	lds	r24, 0x009D
    1d14:	80 62       	ori	r24, 0x20	; 32
    1d16:	80 93 9d 00 	sts	0x009D, r24
    1d1a:	83 e0       	ldi	r24, 0x03	; 3
    1d1c:	80 93 7b 00 	sts	0x007B, r24
    1d20:	86 e0       	ldi	r24, 0x06	; 6
    1d22:	80 93 6b 00 	sts	0x006B, r24
    1d26:	80 c0       	rjmp	.+256    	; 0x1e28 <task_ACS+0x484>
    1d28:	80 91 a2 00 	lds	r24, 0x00A2
    1d2c:	88 23       	and	r24, r24
    1d2e:	e1 f4       	brne	.+56     	; 0x1d68 <task_ACS+0x3c4>
    1d30:	30 91 7b 00 	lds	r19, 0x007B
    1d34:	3d 83       	std	Y+5, r19	; 0x05
    1d36:	1c 82       	std	Y+4, r1	; 0x04
    1d38:	8d 81       	ldd	r24, Y+5	; 0x05
    1d3a:	83 30       	cpi	r24, 0x03	; 3
    1d3c:	10 f0       	brcs	.+4      	; 0x1d42 <task_ACS+0x39e>
    1d3e:	91 e0       	ldi	r25, 0x01	; 1
    1d40:	9c 83       	std	Y+4, r25	; 0x04
    1d42:	8d 81       	ldd	r24, Y+5	; 0x05
    1d44:	8f 5f       	subi	r24, 0xFF	; 255
    1d46:	80 93 7b 00 	sts	0x007B, r24
    1d4a:	2c 81       	ldd	r18, Y+4	; 0x04
    1d4c:	22 23       	and	r18, r18
    1d4e:	61 f0       	breq	.+24     	; 0x1d68 <task_ACS+0x3c4>
    1d50:	a9 e5       	ldi	r26, 0x59	; 89
    1d52:	b0 e0       	ldi	r27, 0x00	; 0
    1d54:	e9 e5       	ldi	r30, 0x59	; 89
    1d56:	f0 e0       	ldi	r31, 0x00	; 0
    1d58:	80 81       	ld	r24, Z
    1d5a:	80 68       	ori	r24, 0x80	; 128
    1d5c:	8c 93       	st	X, r24
    1d5e:	88 e2       	ldi	r24, 0x28	; 40
    1d60:	80 93 a2 00 	sts	0x00A2, r24
    1d64:	10 92 7b 00 	sts	0x007B, r1
    1d68:	80 91 dc 00 	lds	r24, 0x00DC
    1d6c:	88 23       	and	r24, r24
    1d6e:	69 f0       	breq	.+26     	; 0x1d8a <task_ACS+0x3e6>
    1d70:	80 91 f2 00 	lds	r24, 0x00F2
    1d74:	82 30       	cpi	r24, 0x02	; 2
    1d76:	48 f0       	brcs	.+18     	; 0x1d8a <task_ACS+0x3e6>
    1d78:	10 92 f2 00 	sts	0x00F2, r1
    1d7c:	81 e0       	ldi	r24, 0x01	; 1
    1d7e:	80 93 dc 00 	sts	0x00DC, r24
    1d82:	81 e0       	ldi	r24, 0x01	; 1
    1d84:	80 93 6b 00 	sts	0x006B, r24
    1d88:	4f c0       	rjmp	.+158    	; 0x1e28 <task_ACS+0x484>
    1d8a:	80 91 f2 00 	lds	r24, 0x00F2
    1d8e:	86 30       	cpi	r24, 0x06	; 6
    1d90:	48 f0       	brcs	.+18     	; 0x1da4 <task_ACS+0x400>
    1d92:	10 92 f2 00 	sts	0x00F2, r1
    1d96:	81 e0       	ldi	r24, 0x01	; 1
    1d98:	80 93 dc 00 	sts	0x00DC, r24
    1d9c:	81 e0       	ldi	r24, 0x01	; 1
    1d9e:	80 93 6b 00 	sts	0x006B, r24
    1da2:	42 c0       	rjmp	.+132    	; 0x1e28 <task_ACS+0x484>
    1da4:	80 91 79 00 	lds	r24, 0x0079
    1da8:	90 91 7a 00 	lds	r25, 0x007A
    1dac:	9b 83       	std	Y+3, r25	; 0x03
    1dae:	8a 83       	std	Y+2, r24	; 0x02
    1db0:	19 82       	std	Y+1, r1	; 0x01
    1db2:	2a 81       	ldd	r18, Y+2	; 0x02
    1db4:	3b 81       	ldd	r19, Y+3	; 0x03
    1db6:	2e 30       	cpi	r18, 0x0E	; 14
    1db8:	31 05       	cpc	r19, r1
    1dba:	10 f0       	brcs	.+4      	; 0x1dc0 <task_ACS+0x41c>
    1dbc:	31 e0       	ldi	r19, 0x01	; 1
    1dbe:	39 83       	std	Y+1, r19	; 0x01
    1dc0:	8a 81       	ldd	r24, Y+2	; 0x02
    1dc2:	9b 81       	ldd	r25, Y+3	; 0x03
    1dc4:	01 96       	adiw	r24, 0x01	; 1
    1dc6:	90 93 7a 00 	sts	0x007A, r25
    1dca:	80 93 79 00 	sts	0x0079, r24
    1dce:	89 81       	ldd	r24, Y+1	; 0x01
    1dd0:	88 23       	and	r24, r24
    1dd2:	51 f1       	breq	.+84     	; 0x1e28 <task_ACS+0x484>
    1dd4:	10 92 dc 00 	sts	0x00DC, r1
    1dd8:	81 e0       	ldi	r24, 0x01	; 1
    1dda:	80 93 6b 00 	sts	0x006B, r24
    1dde:	a9 e5       	ldi	r26, 0x59	; 89
    1de0:	b0 e0       	ldi	r27, 0x00	; 0
    1de2:	e9 e5       	ldi	r30, 0x59	; 89
    1de4:	f0 e0       	ldi	r31, 0x00	; 0
    1de6:	80 81       	ld	r24, Z
    1de8:	8f 77       	andi	r24, 0x7F	; 127
    1dea:	8c 93       	st	X, r24
    1dec:	a2 e3       	ldi	r26, 0x32	; 50
    1dee:	b0 e0       	ldi	r27, 0x00	; 0
    1df0:	e2 e3       	ldi	r30, 0x32	; 50
    1df2:	f0 e0       	ldi	r31, 0x00	; 0
    1df4:	80 81       	ld	r24, Z
    1df6:	8f 77       	andi	r24, 0x7F	; 127
    1df8:	8c 93       	st	X, r24
    1dfa:	a8 e3       	ldi	r26, 0x38	; 56
    1dfc:	b0 e0       	ldi	r27, 0x00	; 0
    1dfe:	e8 e3       	ldi	r30, 0x38	; 56
    1e00:	f0 e0       	ldi	r31, 0x00	; 0
    1e02:	80 81       	ld	r24, Z
    1e04:	80 64       	ori	r24, 0x40	; 64
    1e06:	8c 93       	st	X, r24
    1e08:	a5 e3       	ldi	r26, 0x35	; 53
    1e0a:	b0 e0       	ldi	r27, 0x00	; 0
    1e0c:	e5 e3       	ldi	r30, 0x35	; 53
    1e0e:	f0 e0       	ldi	r31, 0x00	; 0
    1e10:	80 81       	ld	r24, Z
    1e12:	80 68       	ori	r24, 0x80	; 128
    1e14:	8c 93       	st	X, r24
    1e16:	10 92 a2 00 	sts	0x00A2, r1
    1e1a:	06 c0       	rjmp	.+12     	; 0x1e28 <task_ACS+0x484>
    1e1c:	10 92 7a 00 	sts	0x007A, r1
    1e20:	10 92 79 00 	sts	0x0079, r1
    1e24:	10 92 7b 00 	sts	0x007B, r1
    1e28:	90 91 78 00 	lds	r25, 0x0078
    1e2c:	80 91 d3 00 	lds	r24, 0x00D3
    1e30:	98 17       	cp	r25, r24
    1e32:	31 f4       	brne	.+12     	; 0x1e40 <task_ACS+0x49c>
    1e34:	90 91 77 00 	lds	r25, 0x0077
    1e38:	80 91 dc 00 	lds	r24, 0x00DC
    1e3c:	98 17       	cp	r25, r24
    1e3e:	69 f0       	breq	.+26     	; 0x1e5a <task_ACS+0x4b6>
    1e40:	80 91 d3 00 	lds	r24, 0x00D3
    1e44:	80 93 78 00 	sts	0x0078, r24
    1e48:	80 91 dc 00 	lds	r24, 0x00DC
    1e4c:	80 93 77 00 	sts	0x0077, r24
    1e50:	e0 91 6e 00 	lds	r30, 0x006E
    1e54:	f0 91 6f 00 	lds	r31, 0x006F
    1e58:	09 95       	icall
    1e5a:	10 92 b6 00 	sts	0x00B6, r1
    1e5e:	10 92 b5 00 	sts	0x00B5, r1
    1e62:	2e 96       	adiw	r28, 0x0e	; 14
    1e64:	0f b6       	in	r0, 0x3f	; 63
    1e66:	f8 94       	cli
    1e68:	de bf       	out	0x3e, r29	; 62
    1e6a:	0f be       	out	0x3f, r0	; 63
    1e6c:	cd bf       	out	0x3d, r28	; 61
    1e6e:	cf 91       	pop	r28
    1e70:	df 91       	pop	r29
    1e72:	08 95       	ret

00001e74 <disableACS>:
    1e74:	df 93       	push	r29
    1e76:	cf 93       	push	r28
    1e78:	cd b7       	in	r28, 0x3d	; 61
    1e7a:	de b7       	in	r29, 0x3e	; 62
    1e7c:	10 92 6b 00 	sts	0x006B, r1
    1e80:	a9 e5       	ldi	r26, 0x59	; 89
    1e82:	b0 e0       	ldi	r27, 0x00	; 0
    1e84:	e9 e5       	ldi	r30, 0x59	; 89
    1e86:	f0 e0       	ldi	r31, 0x00	; 0
    1e88:	80 81       	ld	r24, Z
    1e8a:	8f 77       	andi	r24, 0x7F	; 127
    1e8c:	8c 93       	st	X, r24
    1e8e:	a2 e3       	ldi	r26, 0x32	; 50
    1e90:	b0 e0       	ldi	r27, 0x00	; 0
    1e92:	e2 e3       	ldi	r30, 0x32	; 50
    1e94:	f0 e0       	ldi	r31, 0x00	; 0
    1e96:	80 81       	ld	r24, Z
    1e98:	8f 77       	andi	r24, 0x7F	; 127
    1e9a:	8c 93       	st	X, r24
    1e9c:	a8 e3       	ldi	r26, 0x38	; 56
    1e9e:	b0 e0       	ldi	r27, 0x00	; 0
    1ea0:	e8 e3       	ldi	r30, 0x38	; 56
    1ea2:	f0 e0       	ldi	r31, 0x00	; 0
    1ea4:	80 81       	ld	r24, Z
    1ea6:	80 64       	ori	r24, 0x40	; 64
    1ea8:	8c 93       	st	X, r24
    1eaa:	a5 e3       	ldi	r26, 0x35	; 53
    1eac:	b0 e0       	ldi	r27, 0x00	; 0
    1eae:	e5 e3       	ldi	r30, 0x35	; 53
    1eb0:	f0 e0       	ldi	r31, 0x00	; 0
    1eb2:	80 81       	ld	r24, Z
    1eb4:	80 68       	ori	r24, 0x80	; 128
    1eb6:	8c 93       	st	X, r24
    1eb8:	10 92 dc 00 	sts	0x00DC, r1
    1ebc:	10 92 d3 00 	sts	0x00D3, r1
    1ec0:	cf 91       	pop	r28
    1ec2:	df 91       	pop	r29
    1ec4:	08 95       	ret

00001ec6 <enableACS>:
    1ec6:	df 93       	push	r29
    1ec8:	cf 93       	push	r28
    1eca:	cd b7       	in	r28, 0x3d	; 61
    1ecc:	de b7       	in	r29, 0x3e	; 62
    1ece:	a9 e5       	ldi	r26, 0x59	; 89
    1ed0:	b0 e0       	ldi	r27, 0x00	; 0
    1ed2:	e9 e5       	ldi	r30, 0x59	; 89
    1ed4:	f0 e0       	ldi	r31, 0x00	; 0
    1ed6:	80 81       	ld	r24, Z
    1ed8:	8f 77       	andi	r24, 0x7F	; 127
    1eda:	8c 93       	st	X, r24
    1edc:	a2 e3       	ldi	r26, 0x32	; 50
    1ede:	b0 e0       	ldi	r27, 0x00	; 0
    1ee0:	e2 e3       	ldi	r30, 0x32	; 50
    1ee2:	f0 e0       	ldi	r31, 0x00	; 0
    1ee4:	80 81       	ld	r24, Z
    1ee6:	8f 77       	andi	r24, 0x7F	; 127
    1ee8:	8c 93       	st	X, r24
    1eea:	a8 e3       	ldi	r26, 0x38	; 56
    1eec:	b0 e0       	ldi	r27, 0x00	; 0
    1eee:	e8 e3       	ldi	r30, 0x38	; 56
    1ef0:	f0 e0       	ldi	r31, 0x00	; 0
    1ef2:	80 81       	ld	r24, Z
    1ef4:	80 64       	ori	r24, 0x40	; 64
    1ef6:	8c 93       	st	X, r24
    1ef8:	a5 e3       	ldi	r26, 0x35	; 53
    1efa:	b0 e0       	ldi	r27, 0x00	; 0
    1efc:	e5 e3       	ldi	r30, 0x35	; 53
    1efe:	f0 e0       	ldi	r31, 0x00	; 0
    1f00:	80 81       	ld	r24, Z
    1f02:	80 68       	ori	r24, 0x80	; 128
    1f04:	8c 93       	st	X, r24
    1f06:	10 92 dc 00 	sts	0x00DC, r1
    1f0a:	10 92 d3 00 	sts	0x00D3, r1
    1f0e:	81 e0       	ldi	r24, 0x01	; 1
    1f10:	80 93 6b 00 	sts	0x006B, r24
    1f14:	cf 91       	pop	r28
    1f16:	df 91       	pop	r29
    1f18:	08 95       	ret

00001f1a <setACSPwrOff>:
    1f1a:	df 93       	push	r29
    1f1c:	cf 93       	push	r28
    1f1e:	cd b7       	in	r28, 0x3d	; 61
    1f20:	de b7       	in	r29, 0x3e	; 62
    1f22:	a1 e3       	ldi	r26, 0x31	; 49
    1f24:	b0 e0       	ldi	r27, 0x00	; 0
    1f26:	e1 e3       	ldi	r30, 0x31	; 49
    1f28:	f0 e0       	ldi	r31, 0x00	; 0
    1f2a:	80 81       	ld	r24, Z
    1f2c:	8f 7b       	andi	r24, 0xBF	; 191
    1f2e:	8c 93       	st	X, r24
    1f30:	a2 e3       	ldi	r26, 0x32	; 50
    1f32:	b0 e0       	ldi	r27, 0x00	; 0
    1f34:	e2 e3       	ldi	r30, 0x32	; 50
    1f36:	f0 e0       	ldi	r31, 0x00	; 0
    1f38:	80 81       	ld	r24, Z
    1f3a:	8f 7b       	andi	r24, 0xBF	; 191
    1f3c:	8c 93       	st	X, r24
    1f3e:	a7 e3       	ldi	r26, 0x37	; 55
    1f40:	b0 e0       	ldi	r27, 0x00	; 0
    1f42:	e7 e3       	ldi	r30, 0x37	; 55
    1f44:	f0 e0       	ldi	r31, 0x00	; 0
    1f46:	80 81       	ld	r24, Z
    1f48:	87 7f       	andi	r24, 0xF7	; 247
    1f4a:	8c 93       	st	X, r24
    1f4c:	a8 e3       	ldi	r26, 0x38	; 56
    1f4e:	b0 e0       	ldi	r27, 0x00	; 0
    1f50:	e8 e3       	ldi	r30, 0x38	; 56
    1f52:	f0 e0       	ldi	r31, 0x00	; 0
    1f54:	80 81       	ld	r24, Z
    1f56:	87 7f       	andi	r24, 0xF7	; 247
    1f58:	8c 93       	st	X, r24
    1f5a:	a8 e3       	ldi	r26, 0x38	; 56
    1f5c:	b0 e0       	ldi	r27, 0x00	; 0
    1f5e:	e8 e3       	ldi	r30, 0x38	; 56
    1f60:	f0 e0       	ldi	r31, 0x00	; 0
    1f62:	80 81       	ld	r24, Z
    1f64:	8f 7b       	andi	r24, 0xBF	; 191
    1f66:	8c 93       	st	X, r24
    1f68:	a5 e3       	ldi	r26, 0x35	; 53
    1f6a:	b0 e0       	ldi	r27, 0x00	; 0
    1f6c:	e5 e3       	ldi	r30, 0x35	; 53
    1f6e:	f0 e0       	ldi	r31, 0x00	; 0
    1f70:	80 81       	ld	r24, Z
    1f72:	8f 77       	andi	r24, 0x7F	; 127
    1f74:	8c 93       	st	X, r24
    1f76:	cf 91       	pop	r28
    1f78:	df 91       	pop	r29
    1f7a:	08 95       	ret

00001f7c <setACSPwrLow>:
    1f7c:	df 93       	push	r29
    1f7e:	cf 93       	push	r28
    1f80:	cd b7       	in	r28, 0x3d	; 61
    1f82:	de b7       	in	r29, 0x3e	; 62
    1f84:	a1 e3       	ldi	r26, 0x31	; 49
    1f86:	b0 e0       	ldi	r27, 0x00	; 0
    1f88:	e1 e3       	ldi	r30, 0x31	; 49
    1f8a:	f0 e0       	ldi	r31, 0x00	; 0
    1f8c:	80 81       	ld	r24, Z
    1f8e:	80 64       	ori	r24, 0x40	; 64
    1f90:	8c 93       	st	X, r24
    1f92:	a2 e3       	ldi	r26, 0x32	; 50
    1f94:	b0 e0       	ldi	r27, 0x00	; 0
    1f96:	e2 e3       	ldi	r30, 0x32	; 50
    1f98:	f0 e0       	ldi	r31, 0x00	; 0
    1f9a:	80 81       	ld	r24, Z
    1f9c:	80 64       	ori	r24, 0x40	; 64
    1f9e:	8c 93       	st	X, r24
    1fa0:	a7 e3       	ldi	r26, 0x37	; 55
    1fa2:	b0 e0       	ldi	r27, 0x00	; 0
    1fa4:	e7 e3       	ldi	r30, 0x37	; 55
    1fa6:	f0 e0       	ldi	r31, 0x00	; 0
    1fa8:	80 81       	ld	r24, Z
    1faa:	87 7f       	andi	r24, 0xF7	; 247
    1fac:	8c 93       	st	X, r24
    1fae:	a8 e3       	ldi	r26, 0x38	; 56
    1fb0:	b0 e0       	ldi	r27, 0x00	; 0
    1fb2:	e8 e3       	ldi	r30, 0x38	; 56
    1fb4:	f0 e0       	ldi	r31, 0x00	; 0
    1fb6:	80 81       	ld	r24, Z
    1fb8:	87 7f       	andi	r24, 0xF7	; 247
    1fba:	8c 93       	st	X, r24
    1fbc:	cf 91       	pop	r28
    1fbe:	df 91       	pop	r29
    1fc0:	08 95       	ret

00001fc2 <setACSPwrMed>:
    1fc2:	df 93       	push	r29
    1fc4:	cf 93       	push	r28
    1fc6:	cd b7       	in	r28, 0x3d	; 61
    1fc8:	de b7       	in	r29, 0x3e	; 62
    1fca:	a1 e3       	ldi	r26, 0x31	; 49
    1fcc:	b0 e0       	ldi	r27, 0x00	; 0
    1fce:	e1 e3       	ldi	r30, 0x31	; 49
    1fd0:	f0 e0       	ldi	r31, 0x00	; 0
    1fd2:	80 81       	ld	r24, Z
    1fd4:	8f 7b       	andi	r24, 0xBF	; 191
    1fd6:	8c 93       	st	X, r24
    1fd8:	a2 e3       	ldi	r26, 0x32	; 50
    1fda:	b0 e0       	ldi	r27, 0x00	; 0
    1fdc:	e2 e3       	ldi	r30, 0x32	; 50
    1fde:	f0 e0       	ldi	r31, 0x00	; 0
    1fe0:	80 81       	ld	r24, Z
    1fe2:	8f 7b       	andi	r24, 0xBF	; 191
    1fe4:	8c 93       	st	X, r24
    1fe6:	a7 e3       	ldi	r26, 0x37	; 55
    1fe8:	b0 e0       	ldi	r27, 0x00	; 0
    1fea:	e7 e3       	ldi	r30, 0x37	; 55
    1fec:	f0 e0       	ldi	r31, 0x00	; 0
    1fee:	80 81       	ld	r24, Z
    1ff0:	88 60       	ori	r24, 0x08	; 8
    1ff2:	8c 93       	st	X, r24
    1ff4:	a8 e3       	ldi	r26, 0x38	; 56
    1ff6:	b0 e0       	ldi	r27, 0x00	; 0
    1ff8:	e8 e3       	ldi	r30, 0x38	; 56
    1ffa:	f0 e0       	ldi	r31, 0x00	; 0
    1ffc:	80 81       	ld	r24, Z
    1ffe:	88 60       	ori	r24, 0x08	; 8
    2000:	8c 93       	st	X, r24
    2002:	cf 91       	pop	r28
    2004:	df 91       	pop	r29
    2006:	08 95       	ret

00002008 <setACSPwrHigh>:
    2008:	df 93       	push	r29
    200a:	cf 93       	push	r28
    200c:	cd b7       	in	r28, 0x3d	; 61
    200e:	de b7       	in	r29, 0x3e	; 62
    2010:	a1 e3       	ldi	r26, 0x31	; 49
    2012:	b0 e0       	ldi	r27, 0x00	; 0
    2014:	e1 e3       	ldi	r30, 0x31	; 49
    2016:	f0 e0       	ldi	r31, 0x00	; 0
    2018:	80 81       	ld	r24, Z
    201a:	80 64       	ori	r24, 0x40	; 64
    201c:	8c 93       	st	X, r24
    201e:	a2 e3       	ldi	r26, 0x32	; 50
    2020:	b0 e0       	ldi	r27, 0x00	; 0
    2022:	e2 e3       	ldi	r30, 0x32	; 50
    2024:	f0 e0       	ldi	r31, 0x00	; 0
    2026:	80 81       	ld	r24, Z
    2028:	80 64       	ori	r24, 0x40	; 64
    202a:	8c 93       	st	X, r24
    202c:	a7 e3       	ldi	r26, 0x37	; 55
    202e:	b0 e0       	ldi	r27, 0x00	; 0
    2030:	e7 e3       	ldi	r30, 0x37	; 55
    2032:	f0 e0       	ldi	r31, 0x00	; 0
    2034:	80 81       	ld	r24, Z
    2036:	88 60       	ori	r24, 0x08	; 8
    2038:	8c 93       	st	X, r24
    203a:	a8 e3       	ldi	r26, 0x38	; 56
    203c:	b0 e0       	ldi	r27, 0x00	; 0
    203e:	e8 e3       	ldi	r30, 0x38	; 56
    2040:	f0 e0       	ldi	r31, 0x00	; 0
    2042:	80 81       	ld	r24, Z
    2044:	88 60       	ori	r24, 0x08	; 8
    2046:	8c 93       	st	X, r24
    2048:	cf 91       	pop	r28
    204a:	df 91       	pop	r29
    204c:	08 95       	ret

0000204e <powerON>:
    204e:	df 93       	push	r29
    2050:	cf 93       	push	r28
    2052:	cd b7       	in	r28, 0x3d	; 61
    2054:	de b7       	in	r29, 0x3e	; 62
    2056:	a8 e3       	ldi	r26, 0x38	; 56
    2058:	b0 e0       	ldi	r27, 0x00	; 0
    205a:	e8 e3       	ldi	r30, 0x38	; 56
    205c:	f0 e0       	ldi	r31, 0x00	; 0
    205e:	80 81       	ld	r24, Z
    2060:	80 61       	ori	r24, 0x10	; 16
    2062:	8c 93       	st	X, r24
    2064:	80 91 a8 00 	lds	r24, 0x00A8
    2068:	84 30       	cpi	r24, 0x04	; 4
    206a:	18 f4       	brcc	.+6      	; 0x2072 <powerON+0x24>
    206c:	83 e0       	ldi	r24, 0x03	; 3
    206e:	80 93 a8 00 	sts	0x00A8, r24
    2072:	cf 91       	pop	r28
    2074:	df 91       	pop	r29
    2076:	08 95       	ret

00002078 <powerOFF>:
    2078:	df 93       	push	r29
    207a:	cf 93       	push	r28
    207c:	00 d0       	rcall	.+0      	; 0x207e <powerOFF+0x6>
    207e:	cd b7       	in	r28, 0x3d	; 61
    2080:	de b7       	in	r29, 0x3e	; 62
    2082:	a8 e3       	ldi	r26, 0x38	; 56
    2084:	b0 e0       	ldi	r27, 0x00	; 0
    2086:	e8 e3       	ldi	r30, 0x38	; 56
    2088:	f0 e0       	ldi	r31, 0x00	; 0
    208a:	80 81       	ld	r24, Z
    208c:	8f 7e       	andi	r24, 0xEF	; 239
    208e:	8c 93       	st	X, r24
    2090:	80 91 a8 00 	lds	r24, 0x00A8
    2094:	84 30       	cpi	r24, 0x04	; 4
    2096:	90 f4       	brcc	.+36     	; 0x20bc <powerOFF+0x44>
    2098:	80 91 a8 00 	lds	r24, 0x00A8
    209c:	88 23       	and	r24, r24
    209e:	21 f4       	brne	.+8      	; 0x20a8 <powerOFF+0x30>
    20a0:	80 91 93 00 	lds	r24, 0x0093
    20a4:	88 23       	and	r24, r24
    20a6:	29 f0       	breq	.+10     	; 0x20b2 <powerOFF+0x3a>
    20a8:	81 e0       	ldi	r24, 0x01	; 1
    20aa:	90 e0       	ldi	r25, 0x00	; 0
    20ac:	9a 83       	std	Y+2, r25	; 0x02
    20ae:	89 83       	std	Y+1, r24	; 0x01
    20b0:	02 c0       	rjmp	.+4      	; 0x20b6 <powerOFF+0x3e>
    20b2:	1a 82       	std	Y+2, r1	; 0x02
    20b4:	19 82       	std	Y+1, r1	; 0x01
    20b6:	89 81       	ldd	r24, Y+1	; 0x01
    20b8:	80 93 a8 00 	sts	0x00A8, r24
    20bc:	0f 90       	pop	r0
    20be:	0f 90       	pop	r0
    20c0:	cf 91       	pop	r28
    20c2:	df 91       	pop	r29
    20c4:	08 95       	ret

000020c6 <__vector_10>:
    20c6:	1f 92       	push	r1
    20c8:	0f 92       	push	r0
    20ca:	0f b6       	in	r0, 0x3f	; 63
    20cc:	0f 92       	push	r0
    20ce:	11 24       	eor	r1, r1
    20d0:	2f 93       	push	r18
    20d2:	3f 93       	push	r19
    20d4:	5f 93       	push	r21
    20d6:	6f 93       	push	r22
    20d8:	7f 93       	push	r23
    20da:	8f 93       	push	r24
    20dc:	9f 93       	push	r25
    20de:	af 93       	push	r26
    20e0:	bf 93       	push	r27
    20e2:	ef 93       	push	r30
    20e4:	ff 93       	push	r31
    20e6:	df 93       	push	r29
    20e8:	cf 93       	push	r28
    20ea:	cd b7       	in	r28, 0x3d	; 61
    20ec:	de b7       	in	r29, 0x3e	; 62
    20ee:	2b 97       	sbiw	r28, 0x0b	; 11
    20f0:	de bf       	out	0x3e, r29	; 62
    20f2:	cd bf       	out	0x3d, r28	; 61
    20f4:	80 91 8e 00 	lds	r24, 0x008E
    20f8:	90 91 8f 00 	lds	r25, 0x008F
    20fc:	01 96       	adiw	r24, 0x01	; 1
    20fe:	90 93 8f 00 	sts	0x008F, r25
    2102:	80 93 8e 00 	sts	0x008E, r24
    2106:	80 91 e9 00 	lds	r24, 0x00E9
    210a:	8f 5f       	subi	r24, 0xFF	; 255
    210c:	80 93 e9 00 	sts	0x00E9, r24
    2110:	20 91 ec 00 	lds	r18, 0x00EC
    2114:	2b 87       	std	Y+11, r18	; 0x0b
    2116:	1a 86       	std	Y+10, r1	; 0x0a
    2118:	8b 85       	ldd	r24, Y+11	; 0x0b
    211a:	89 30       	cpi	r24, 0x09	; 9
    211c:	10 f0       	brcs	.+4      	; 0x2122 <__vector_10+0x5c>
    211e:	91 e0       	ldi	r25, 0x01	; 1
    2120:	9a 87       	std	Y+10, r25	; 0x0a
    2122:	8b 85       	ldd	r24, Y+11	; 0x0b
    2124:	8f 5f       	subi	r24, 0xFF	; 255
    2126:	80 93 ec 00 	sts	0x00EC, r24
    212a:	2a 85       	ldd	r18, Y+10	; 0x0a
    212c:	22 23       	and	r18, r18
    212e:	09 f4       	brne	.+2      	; 0x2132 <__vector_10+0x6c>
    2130:	ec c1       	rjmp	.+984    	; 0x250a <__vector_10+0x444>
    2132:	80 91 c1 00 	lds	r24, 0x00C1
    2136:	88 2f       	mov	r24, r24
    2138:	90 e0       	ldi	r25, 0x00	; 0
    213a:	81 70       	andi	r24, 0x01	; 1
    213c:	90 70       	andi	r25, 0x00	; 0
    213e:	88 23       	and	r24, r24
    2140:	49 f0       	breq	.+18     	; 0x2154 <__vector_10+0x8e>
    2142:	80 91 c2 00 	lds	r24, 0x00C2
    2146:	90 91 c3 00 	lds	r25, 0x00C3
    214a:	01 96       	adiw	r24, 0x01	; 1
    214c:	90 93 c3 00 	sts	0x00C3, r25
    2150:	80 93 c2 00 	sts	0x00C2, r24
    2154:	80 91 c1 00 	lds	r24, 0x00C1
    2158:	88 2f       	mov	r24, r24
    215a:	90 e0       	ldi	r25, 0x00	; 0
    215c:	82 70       	andi	r24, 0x02	; 2
    215e:	90 70       	andi	r25, 0x00	; 0
    2160:	00 97       	sbiw	r24, 0x00	; 0
    2162:	49 f0       	breq	.+18     	; 0x2176 <__vector_10+0xb0>
    2164:	80 91 c4 00 	lds	r24, 0x00C4
    2168:	90 91 c5 00 	lds	r25, 0x00C5
    216c:	01 96       	adiw	r24, 0x01	; 1
    216e:	90 93 c5 00 	sts	0x00C5, r25
    2172:	80 93 c4 00 	sts	0x00C4, r24
    2176:	80 91 c1 00 	lds	r24, 0x00C1
    217a:	88 2f       	mov	r24, r24
    217c:	90 e0       	ldi	r25, 0x00	; 0
    217e:	84 70       	andi	r24, 0x04	; 4
    2180:	90 70       	andi	r25, 0x00	; 0
    2182:	00 97       	sbiw	r24, 0x00	; 0
    2184:	49 f0       	breq	.+18     	; 0x2198 <__vector_10+0xd2>
    2186:	80 91 c6 00 	lds	r24, 0x00C6
    218a:	90 91 c7 00 	lds	r25, 0x00C7
    218e:	01 96       	adiw	r24, 0x01	; 1
    2190:	90 93 c7 00 	sts	0x00C7, r25
    2194:	80 93 c6 00 	sts	0x00C6, r24
    2198:	80 91 c1 00 	lds	r24, 0x00C1
    219c:	88 2f       	mov	r24, r24
    219e:	90 e0       	ldi	r25, 0x00	; 0
    21a0:	88 70       	andi	r24, 0x08	; 8
    21a2:	90 70       	andi	r25, 0x00	; 0
    21a4:	00 97       	sbiw	r24, 0x00	; 0
    21a6:	49 f0       	breq	.+18     	; 0x21ba <__vector_10+0xf4>
    21a8:	80 91 c8 00 	lds	r24, 0x00C8
    21ac:	90 91 c9 00 	lds	r25, 0x00C9
    21b0:	01 96       	adiw	r24, 0x01	; 1
    21b2:	90 93 c9 00 	sts	0x00C9, r25
    21b6:	80 93 c8 00 	sts	0x00C8, r24
    21ba:	80 91 c1 00 	lds	r24, 0x00C1
    21be:	88 2f       	mov	r24, r24
    21c0:	90 e0       	ldi	r25, 0x00	; 0
    21c2:	80 71       	andi	r24, 0x10	; 16
    21c4:	90 70       	andi	r25, 0x00	; 0
    21c6:	00 97       	sbiw	r24, 0x00	; 0
    21c8:	49 f0       	breq	.+18     	; 0x21dc <__vector_10+0x116>
    21ca:	80 91 ca 00 	lds	r24, 0x00CA
    21ce:	90 91 cb 00 	lds	r25, 0x00CB
    21d2:	01 96       	adiw	r24, 0x01	; 1
    21d4:	90 93 cb 00 	sts	0x00CB, r25
    21d8:	80 93 ca 00 	sts	0x00CA, r24
    21dc:	80 91 c1 00 	lds	r24, 0x00C1
    21e0:	88 2f       	mov	r24, r24
    21e2:	90 e0       	ldi	r25, 0x00	; 0
    21e4:	80 72       	andi	r24, 0x20	; 32
    21e6:	90 70       	andi	r25, 0x00	; 0
    21e8:	00 97       	sbiw	r24, 0x00	; 0
    21ea:	49 f0       	breq	.+18     	; 0x21fe <__vector_10+0x138>
    21ec:	80 91 cc 00 	lds	r24, 0x00CC
    21f0:	90 91 cd 00 	lds	r25, 0x00CD
    21f4:	01 96       	adiw	r24, 0x01	; 1
    21f6:	90 93 cd 00 	sts	0x00CD, r25
    21fa:	80 93 cc 00 	sts	0x00CC, r24
    21fe:	80 91 c1 00 	lds	r24, 0x00C1
    2202:	88 2f       	mov	r24, r24
    2204:	90 e0       	ldi	r25, 0x00	; 0
    2206:	80 74       	andi	r24, 0x40	; 64
    2208:	90 70       	andi	r25, 0x00	; 0
    220a:	00 97       	sbiw	r24, 0x00	; 0
    220c:	49 f0       	breq	.+18     	; 0x2220 <__vector_10+0x15a>
    220e:	80 91 ce 00 	lds	r24, 0x00CE
    2212:	90 91 cf 00 	lds	r25, 0x00CF
    2216:	01 96       	adiw	r24, 0x01	; 1
    2218:	90 93 cf 00 	sts	0x00CF, r25
    221c:	80 93 ce 00 	sts	0x00CE, r24
    2220:	80 91 c1 00 	lds	r24, 0x00C1
    2224:	88 23       	and	r24, r24
    2226:	4c f4       	brge	.+18     	; 0x223a <__vector_10+0x174>
    2228:	80 91 d0 00 	lds	r24, 0x00D0
    222c:	90 91 d1 00 	lds	r25, 0x00D1
    2230:	01 96       	adiw	r24, 0x01	; 1
    2232:	90 93 d1 00 	sts	0x00D1, r25
    2236:	80 93 d0 00 	sts	0x00D0, r24
    223a:	80 91 dd 00 	lds	r24, 0x00DD
    223e:	89 87       	std	Y+9, r24	; 0x09
    2240:	18 86       	std	Y+8, r1	; 0x08
    2242:	99 85       	ldd	r25, Y+9	; 0x09
    2244:	99 3c       	cpi	r25, 0xC9	; 201
    2246:	10 f0       	brcs	.+4      	; 0x224c <__vector_10+0x186>
    2248:	21 e0       	ldi	r18, 0x01	; 1
    224a:	28 87       	std	Y+8, r18	; 0x08
    224c:	89 85       	ldd	r24, Y+9	; 0x09
    224e:	8f 5f       	subi	r24, 0xFF	; 255
    2250:	80 93 dd 00 	sts	0x00DD, r24
    2254:	88 85       	ldd	r24, Y+8	; 0x08
    2256:	88 23       	and	r24, r24
    2258:	e9 f0       	breq	.+58     	; 0x2294 <__vector_10+0x1ce>
    225a:	80 91 bb 00 	lds	r24, 0x00BB
    225e:	90 91 bc 00 	lds	r25, 0x00BC
    2262:	90 93 ee 00 	sts	0x00EE, r25
    2266:	80 93 ed 00 	sts	0x00ED, r24
    226a:	80 91 e5 00 	lds	r24, 0x00E5
    226e:	90 91 e6 00 	lds	r25, 0x00E6
    2272:	90 93 ac 00 	sts	0x00AC, r25
    2276:	80 93 ab 00 	sts	0x00AB, r24
    227a:	10 92 bc 00 	sts	0x00BC, r1
    227e:	10 92 bb 00 	sts	0x00BB, r1
    2282:	10 92 e6 00 	sts	0x00E6, r1
    2286:	10 92 e5 00 	sts	0x00E5, r1
    228a:	81 e0       	ldi	r24, 0x01	; 1
    228c:	80 93 a7 00 	sts	0x00A7, r24
    2290:	10 92 dd 00 	sts	0x00DD, r1
    2294:	80 91 a8 00 	lds	r24, 0x00A8
    2298:	83 30       	cpi	r24, 0x03	; 3
    229a:	08 f0       	brcs	.+2      	; 0x229e <__vector_10+0x1d8>
    229c:	a3 c0       	rjmp	.+326    	; 0x23e4 <__vector_10+0x31e>
    229e:	80 91 a8 00 	lds	r24, 0x00A8
    22a2:	82 30       	cpi	r24, 0x02	; 2
    22a4:	09 f0       	breq	.+2      	; 0x22a8 <__vector_10+0x1e2>
    22a6:	6b c0       	rjmp	.+214    	; 0x237e <__vector_10+0x2b8>
    22a8:	80 91 93 00 	lds	r24, 0x0093
    22ac:	88 23       	and	r24, r24
    22ae:	09 f0       	breq	.+2      	; 0x22b2 <__vector_10+0x1ec>
    22b0:	4b c0       	rjmp	.+150    	; 0x2348 <__vector_10+0x282>
    22b2:	80 91 80 00 	lds	r24, 0x0080
    22b6:	90 91 81 00 	lds	r25, 0x0081
    22ba:	9f 83       	std	Y+7, r25	; 0x07
    22bc:	8e 83       	std	Y+6, r24	; 0x06
    22be:	28 ec       	ldi	r18, 0xC8	; 200
    22c0:	30 e0       	ldi	r19, 0x00	; 0
    22c2:	8e 81       	ldd	r24, Y+6	; 0x06
    22c4:	9f 81       	ldd	r25, Y+7	; 0x07
    22c6:	b9 01       	movw	r22, r18
    22c8:	0e 94 39 17 	call	0x2e72	; 0x2e72 <__udivmodhi4>
    22cc:	1d 82       	std	Y+5, r1	; 0x05
    22ce:	00 97       	sbiw	r24, 0x00	; 0
    22d0:	11 f4       	brne	.+4      	; 0x22d6 <__vector_10+0x210>
    22d2:	91 e0       	ldi	r25, 0x01	; 1
    22d4:	9d 83       	std	Y+5, r25	; 0x05
    22d6:	8e 81       	ldd	r24, Y+6	; 0x06
    22d8:	9f 81       	ldd	r25, Y+7	; 0x07
    22da:	01 96       	adiw	r24, 0x01	; 1
    22dc:	90 93 81 00 	sts	0x0081, r25
    22e0:	80 93 80 00 	sts	0x0080, r24
    22e4:	2d 81       	ldd	r18, Y+5	; 0x05
    22e6:	22 23       	and	r18, r18
    22e8:	09 f4       	brne	.+2      	; 0x22ec <__vector_10+0x226>
    22ea:	7c c0       	rjmp	.+248    	; 0x23e4 <__vector_10+0x31e>
    22ec:	80 91 80 00 	lds	r24, 0x0080
    22f0:	90 91 81 00 	lds	r25, 0x0081
    22f4:	2f e0       	ldi	r18, 0x0F	; 15
    22f6:	81 3a       	cpi	r24, 0xA1	; 161
    22f8:	92 07       	cpc	r25, r18
    22fa:	a8 f0       	brcs	.+42     	; 0x2326 <__vector_10+0x260>
    22fc:	a7 e3       	ldi	r26, 0x37	; 55
    22fe:	b0 e0       	ldi	r27, 0x00	; 0
    2300:	e7 e3       	ldi	r30, 0x37	; 55
    2302:	f0 e0       	ldi	r31, 0x00	; 0
    2304:	80 81       	ld	r24, Z
    2306:	8d 7f       	andi	r24, 0xFD	; 253
    2308:	8c 93       	st	X, r24
    230a:	a8 e3       	ldi	r26, 0x38	; 56
    230c:	b0 e0       	ldi	r27, 0x00	; 0
    230e:	e8 e3       	ldi	r30, 0x38	; 56
    2310:	f0 e0       	ldi	r31, 0x00	; 0
    2312:	80 81       	ld	r24, Z
    2314:	8d 7f       	andi	r24, 0xFD	; 253
    2316:	8c 93       	st	X, r24
    2318:	10 92 a8 00 	sts	0x00A8, r1
    231c:	10 92 81 00 	sts	0x0081, r1
    2320:	10 92 80 00 	sts	0x0080, r1
    2324:	5f c0       	rjmp	.+190    	; 0x23e4 <__vector_10+0x31e>
    2326:	a7 e3       	ldi	r26, 0x37	; 55
    2328:	b0 e0       	ldi	r27, 0x00	; 0
    232a:	e7 e3       	ldi	r30, 0x37	; 55
    232c:	f0 e0       	ldi	r31, 0x00	; 0
    232e:	90 81       	ld	r25, Z
    2330:	82 e0       	ldi	r24, 0x02	; 2
    2332:	89 27       	eor	r24, r25
    2334:	8c 93       	st	X, r24
    2336:	a8 e3       	ldi	r26, 0x38	; 56
    2338:	b0 e0       	ldi	r27, 0x00	; 0
    233a:	e8 e3       	ldi	r30, 0x38	; 56
    233c:	f0 e0       	ldi	r31, 0x00	; 0
    233e:	90 81       	ld	r25, Z
    2340:	82 e0       	ldi	r24, 0x02	; 2
    2342:	89 27       	eor	r24, r25
    2344:	8c 93       	st	X, r24
    2346:	4e c0       	rjmp	.+156    	; 0x23e4 <__vector_10+0x31e>
    2348:	80 91 93 00 	lds	r24, 0x0093
    234c:	80 71       	andi	r24, 0x10	; 16
    234e:	88 23       	and	r24, r24
    2350:	71 f4       	brne	.+28     	; 0x236e <__vector_10+0x2a8>
    2352:	a7 e3       	ldi	r26, 0x37	; 55
    2354:	b0 e0       	ldi	r27, 0x00	; 0
    2356:	e7 e3       	ldi	r30, 0x37	; 55
    2358:	f0 e0       	ldi	r31, 0x00	; 0
    235a:	80 81       	ld	r24, Z
    235c:	8d 7f       	andi	r24, 0xFD	; 253
    235e:	8c 93       	st	X, r24
    2360:	a8 e3       	ldi	r26, 0x38	; 56
    2362:	b0 e0       	ldi	r27, 0x00	; 0
    2364:	e8 e3       	ldi	r30, 0x38	; 56
    2366:	f0 e0       	ldi	r31, 0x00	; 0
    2368:	80 81       	ld	r24, Z
    236a:	8d 7f       	andi	r24, 0xFD	; 253
    236c:	8c 93       	st	X, r24
    236e:	10 92 81 00 	sts	0x0081, r1
    2372:	10 92 80 00 	sts	0x0080, r1
    2376:	81 e0       	ldi	r24, 0x01	; 1
    2378:	80 93 a8 00 	sts	0x00A8, r24
    237c:	33 c0       	rjmp	.+102    	; 0x23e4 <__vector_10+0x31e>
    237e:	80 91 80 00 	lds	r24, 0x0080
    2382:	90 91 81 00 	lds	r25, 0x0081
    2386:	2e e2       	ldi	r18, 0x2E	; 46
    2388:	81 3e       	cpi	r24, 0xE1	; 225
    238a:	92 07       	cpc	r25, r18
    238c:	10 f1       	brcs	.+68     	; 0x23d2 <__vector_10+0x30c>
    238e:	80 91 a8 00 	lds	r24, 0x00A8
    2392:	81 30       	cpi	r24, 0x01	; 1
    2394:	b1 f4       	brne	.+44     	; 0x23c2 <__vector_10+0x2fc>
    2396:	10 92 a8 00 	sts	0x00A8, r1
    239a:	80 91 93 00 	lds	r24, 0x0093
    239e:	80 71       	andi	r24, 0x10	; 16
    23a0:	88 23       	and	r24, r24
    23a2:	91 f4       	brne	.+36     	; 0x23c8 <__vector_10+0x302>
    23a4:	a7 e3       	ldi	r26, 0x37	; 55
    23a6:	b0 e0       	ldi	r27, 0x00	; 0
    23a8:	e7 e3       	ldi	r30, 0x37	; 55
    23aa:	f0 e0       	ldi	r31, 0x00	; 0
    23ac:	80 81       	ld	r24, Z
    23ae:	8d 7f       	andi	r24, 0xFD	; 253
    23b0:	8c 93       	st	X, r24
    23b2:	a8 e3       	ldi	r26, 0x38	; 56
    23b4:	b0 e0       	ldi	r27, 0x00	; 0
    23b6:	e8 e3       	ldi	r30, 0x38	; 56
    23b8:	f0 e0       	ldi	r31, 0x00	; 0
    23ba:	80 81       	ld	r24, Z
    23bc:	8d 7f       	andi	r24, 0xFD	; 253
    23be:	8c 93       	st	X, r24
    23c0:	03 c0       	rjmp	.+6      	; 0x23c8 <__vector_10+0x302>
    23c2:	82 e0       	ldi	r24, 0x02	; 2
    23c4:	80 93 a8 00 	sts	0x00A8, r24
    23c8:	10 92 81 00 	sts	0x0081, r1
    23cc:	10 92 80 00 	sts	0x0080, r1
    23d0:	09 c0       	rjmp	.+18     	; 0x23e4 <__vector_10+0x31e>
    23d2:	80 91 80 00 	lds	r24, 0x0080
    23d6:	90 91 81 00 	lds	r25, 0x0081
    23da:	01 96       	adiw	r24, 0x01	; 1
    23dc:	90 93 81 00 	sts	0x0081, r25
    23e0:	80 93 80 00 	sts	0x0080, r24
    23e4:	80 91 b5 00 	lds	r24, 0x00B5
    23e8:	90 91 b6 00 	lds	r25, 0x00B6
    23ec:	83 30       	cpi	r24, 0x03	; 3
    23ee:	91 05       	cpc	r25, r1
    23f0:	48 f4       	brcc	.+18     	; 0x2404 <__vector_10+0x33e>
    23f2:	80 91 b5 00 	lds	r24, 0x00B5
    23f6:	90 91 b6 00 	lds	r25, 0x00B6
    23fa:	01 96       	adiw	r24, 0x01	; 1
    23fc:	90 93 b6 00 	sts	0x00B6, r25
    2400:	80 93 b5 00 	sts	0x00B5, r24
    2404:	80 91 d5 00 	lds	r24, 0x00D5
    2408:	87 33       	cpi	r24, 0x37	; 55
    240a:	28 f4       	brcc	.+10     	; 0x2416 <__vector_10+0x350>
    240c:	80 91 d5 00 	lds	r24, 0x00D5
    2410:	8f 5f       	subi	r24, 0xFF	; 255
    2412:	80 93 d5 00 	sts	0x00D5, r24
    2416:	80 91 e0 00 	lds	r24, 0x00E0
    241a:	84 33       	cpi	r24, 0x34	; 52
    241c:	28 f4       	brcc	.+10     	; 0x2428 <__vector_10+0x362>
    241e:	80 91 e0 00 	lds	r24, 0x00E0
    2422:	8f 5f       	subi	r24, 0xFF	; 255
    2424:	80 93 e0 00 	sts	0x00E0, r24
    2428:	80 91 db 00 	lds	r24, 0x00DB
    242c:	8c 83       	std	Y+4, r24	; 0x04
    242e:	1b 82       	std	Y+3, r1	; 0x03
    2430:	9c 81       	ldd	r25, Y+4	; 0x04
    2432:	93 30       	cpi	r25, 0x03	; 3
    2434:	10 f0       	brcs	.+4      	; 0x243a <__vector_10+0x374>
    2436:	21 e0       	ldi	r18, 0x01	; 1
    2438:	2b 83       	std	Y+3, r18	; 0x03
    243a:	8c 81       	ldd	r24, Y+4	; 0x04
    243c:	8f 5f       	subi	r24, 0xFF	; 255
    243e:	80 93 db 00 	sts	0x00DB, r24
    2442:	8b 81       	ldd	r24, Y+3	; 0x03
    2444:	88 23       	and	r24, r24
    2446:	09 f4       	brne	.+2      	; 0x244a <__vector_10+0x384>
    2448:	5e c0       	rjmp	.+188    	; 0x2506 <__vector_10+0x440>
    244a:	80 91 d6 00 	lds	r24, 0x00D6
    244e:	28 2f       	mov	r18, r24
    2450:	30 e0       	ldi	r19, 0x00	; 0
    2452:	80 91 b9 00 	lds	r24, 0x00B9
    2456:	90 91 ba 00 	lds	r25, 0x00BA
    245a:	28 17       	cp	r18, r24
    245c:	39 07       	cpc	r19, r25
    245e:	d9 f0       	breq	.+54     	; 0x2496 <__vector_10+0x3d0>
    2460:	80 91 d6 00 	lds	r24, 0x00D6
    2464:	28 2f       	mov	r18, r24
    2466:	30 e0       	ldi	r19, 0x00	; 0
    2468:	80 91 b9 00 	lds	r24, 0x00B9
    246c:	90 91 ba 00 	lds	r25, 0x00BA
    2470:	28 17       	cp	r18, r24
    2472:	39 07       	cpc	r19, r25
    2474:	34 f4       	brge	.+12     	; 0x2482 <__vector_10+0x3bc>
    2476:	80 91 d6 00 	lds	r24, 0x00D6
    247a:	8f 5f       	subi	r24, 0xFF	; 255
    247c:	80 93 d6 00 	sts	0x00D6, r24
    2480:	05 c0       	rjmp	.+10     	; 0x248c <__vector_10+0x3c6>
    2482:	80 91 d6 00 	lds	r24, 0x00D6
    2486:	81 50       	subi	r24, 0x01	; 1
    2488:	80 93 d6 00 	sts	0x00D6, r24
    248c:	ea e4       	ldi	r30, 0x4A	; 74
    248e:	f0 e0       	ldi	r31, 0x00	; 0
    2490:	80 91 d6 00 	lds	r24, 0x00D6
    2494:	80 83       	st	Z, r24
    2496:	80 91 f8 00 	lds	r24, 0x00F8
    249a:	28 2f       	mov	r18, r24
    249c:	30 e0       	ldi	r19, 0x00	; 0
    249e:	80 91 a9 00 	lds	r24, 0x00A9
    24a2:	90 91 aa 00 	lds	r25, 0x00AA
    24a6:	28 17       	cp	r18, r24
    24a8:	39 07       	cpc	r19, r25
    24aa:	d9 f0       	breq	.+54     	; 0x24e2 <__vector_10+0x41c>
    24ac:	80 91 f8 00 	lds	r24, 0x00F8
    24b0:	28 2f       	mov	r18, r24
    24b2:	30 e0       	ldi	r19, 0x00	; 0
    24b4:	80 91 a9 00 	lds	r24, 0x00A9
    24b8:	90 91 aa 00 	lds	r25, 0x00AA
    24bc:	28 17       	cp	r18, r24
    24be:	39 07       	cpc	r19, r25
    24c0:	34 f4       	brge	.+12     	; 0x24ce <__vector_10+0x408>
    24c2:	80 91 f8 00 	lds	r24, 0x00F8
    24c6:	8f 5f       	subi	r24, 0xFF	; 255
    24c8:	80 93 f8 00 	sts	0x00F8, r24
    24cc:	05 c0       	rjmp	.+10     	; 0x24d8 <__vector_10+0x412>
    24ce:	80 91 f8 00 	lds	r24, 0x00F8
    24d2:	81 50       	subi	r24, 0x01	; 1
    24d4:	80 93 f8 00 	sts	0x00F8, r24
    24d8:	e8 e4       	ldi	r30, 0x48	; 72
    24da:	f0 e0       	ldi	r31, 0x00	; 0
    24dc:	80 91 f8 00 	lds	r24, 0x00F8
    24e0:	80 83       	st	Z, r24
    24e2:	80 91 f8 00 	lds	r24, 0x00F8
    24e6:	88 23       	and	r24, r24
    24e8:	21 f4       	brne	.+8      	; 0x24f2 <__vector_10+0x42c>
    24ea:	80 91 d6 00 	lds	r24, 0x00D6
    24ee:	88 23       	and	r24, r24
    24f0:	29 f0       	breq	.+10     	; 0x24fc <__vector_10+0x436>
    24f2:	ef e4       	ldi	r30, 0x4F	; 79
    24f4:	f0 e0       	ldi	r31, 0x00	; 0
    24f6:	82 ea       	ldi	r24, 0xA2	; 162
    24f8:	80 83       	st	Z, r24
    24fa:	03 c0       	rjmp	.+6      	; 0x2502 <__vector_10+0x43c>
    24fc:	ef e4       	ldi	r30, 0x4F	; 79
    24fe:	f0 e0       	ldi	r31, 0x00	; 0
    2500:	10 82       	st	Z, r1
    2502:	10 92 db 00 	sts	0x00DB, r1
    2506:	10 92 ec 00 	sts	0x00EC, r1
    250a:	80 91 9d 00 	lds	r24, 0x009D
    250e:	88 70       	andi	r24, 0x08	; 8
    2510:	88 23       	and	r24, r24
    2512:	09 f0       	breq	.+2      	; 0x2516 <__vector_10+0x450>
    2514:	77 c0       	rjmp	.+238    	; 0x2604 <__vector_10+0x53e>
    2516:	80 91 7c 00 	lds	r24, 0x007C
    251a:	90 91 7d 00 	lds	r25, 0x007D
    251e:	9a 83       	std	Y+2, r25	; 0x02
    2520:	89 83       	std	Y+1, r24	; 0x01
    2522:	80 91 7e 00 	lds	r24, 0x007E
    2526:	8f 5f       	subi	r24, 0xFF	; 255
    2528:	80 93 7e 00 	sts	0x007E, r24
    252c:	80 91 7e 00 	lds	r24, 0x007E
    2530:	86 31       	cpi	r24, 0x16	; 22
    2532:	f0 f0       	brcs	.+60     	; 0x2570 <__vector_10+0x4aa>
    2534:	89 81       	ldd	r24, Y+1	; 0x01
    2536:	9a 81       	ldd	r25, Y+2	; 0x02
    2538:	80 70       	andi	r24, 0x00	; 0
    253a:	90 74       	andi	r25, 0x40	; 64
    253c:	00 97       	sbiw	r24, 0x00	; 0
    253e:	89 f4       	brne	.+34     	; 0x2562 <__vector_10+0x49c>
    2540:	89 81       	ldd	r24, Y+1	; 0x01
    2542:	9a 81       	ldd	r25, Y+2	; 0x02
    2544:	80 70       	andi	r24, 0x00	; 0
    2546:	90 72       	andi	r25, 0x20	; 32
    2548:	00 97       	sbiw	r24, 0x00	; 0
    254a:	59 f0       	breq	.+22     	; 0x2562 <__vector_10+0x49c>
    254c:	89 81       	ldd	r24, Y+1	; 0x01
    254e:	9a 81       	ldd	r25, Y+2	; 0x02
    2550:	90 93 f7 00 	sts	0x00F7, r25
    2554:	80 93 f6 00 	sts	0x00F6, r24
    2558:	80 91 9d 00 	lds	r24, 0x009D
    255c:	88 60       	ori	r24, 0x08	; 8
    255e:	80 93 9d 00 	sts	0x009D, r24
    2562:	80 91 9d 00 	lds	r24, 0x009D
    2566:	8f 7e       	andi	r24, 0xEF	; 239
    2568:	80 93 9d 00 	sts	0x009D, r24
    256c:	1a 82       	std	Y+2, r1	; 0x02
    256e:	19 82       	std	Y+1, r1	; 0x01
    2570:	e6 e3       	ldi	r30, 0x36	; 54
    2572:	f0 e0       	ldi	r31, 0x00	; 0
    2574:	90 81       	ld	r25, Z
    2576:	80 91 7f 00 	lds	r24, 0x007F
    257a:	89 27       	eor	r24, r25
    257c:	88 2f       	mov	r24, r24
    257e:	90 e0       	ldi	r25, 0x00	; 0
    2580:	84 70       	andi	r24, 0x04	; 4
    2582:	90 70       	andi	r25, 0x00	; 0
    2584:	00 97       	sbiw	r24, 0x00	; 0
    2586:	c1 f1       	breq	.+112    	; 0x25f8 <__vector_10+0x532>
    2588:	80 91 7f 00 	lds	r24, 0x007F
    258c:	80 95       	com	r24
    258e:	80 93 7f 00 	sts	0x007F, r24
    2592:	80 91 7e 00 	lds	r24, 0x007E
    2596:	87 30       	cpi	r24, 0x07	; 7
    2598:	38 f4       	brcc	.+14     	; 0x25a8 <__vector_10+0x4e2>
    259a:	80 91 9d 00 	lds	r24, 0x009D
    259e:	8f 7e       	andi	r24, 0xEF	; 239
    25a0:	80 93 9d 00 	sts	0x009D, r24
    25a4:	1a 82       	std	Y+2, r1	; 0x02
    25a6:	19 82       	std	Y+1, r1	; 0x01
    25a8:	89 81       	ldd	r24, Y+1	; 0x01
    25aa:	9a 81       	ldd	r25, Y+2	; 0x02
    25ac:	00 97       	sbiw	r24, 0x00	; 0
    25ae:	21 f0       	breq	.+8      	; 0x25b8 <__vector_10+0x4f2>
    25b0:	80 91 7e 00 	lds	r24, 0x007E
    25b4:	8f 30       	cpi	r24, 0x0F	; 15
    25b6:	00 f1       	brcs	.+64     	; 0x25f8 <__vector_10+0x532>
    25b8:	80 91 9d 00 	lds	r24, 0x009D
    25bc:	80 61       	ori	r24, 0x10	; 16
    25be:	80 93 9d 00 	sts	0x009D, r24
    25c2:	89 81       	ldd	r24, Y+1	; 0x01
    25c4:	9a 81       	ldd	r25, Y+2	; 0x02
    25c6:	80 70       	andi	r24, 0x00	; 0
    25c8:	90 74       	andi	r25, 0x40	; 64
    25ca:	00 97       	sbiw	r24, 0x00	; 0
    25cc:	31 f4       	brne	.+12     	; 0x25da <__vector_10+0x514>
    25ce:	89 81       	ldd	r24, Y+1	; 0x01
    25d0:	9a 81       	ldd	r25, Y+2	; 0x02
    25d2:	88 0f       	add	r24, r24
    25d4:	99 1f       	adc	r25, r25
    25d6:	9a 83       	std	Y+2, r25	; 0x02
    25d8:	89 83       	std	Y+1, r24	; 0x01
    25da:	80 91 7f 00 	lds	r24, 0x007F
    25de:	88 2f       	mov	r24, r24
    25e0:	90 e0       	ldi	r25, 0x00	; 0
    25e2:	84 70       	andi	r24, 0x04	; 4
    25e4:	90 70       	andi	r25, 0x00	; 0
    25e6:	00 97       	sbiw	r24, 0x00	; 0
    25e8:	29 f4       	brne	.+10     	; 0x25f4 <__vector_10+0x52e>
    25ea:	89 81       	ldd	r24, Y+1	; 0x01
    25ec:	9a 81       	ldd	r25, Y+2	; 0x02
    25ee:	81 60       	ori	r24, 0x01	; 1
    25f0:	9a 83       	std	Y+2, r25	; 0x02
    25f2:	89 83       	std	Y+1, r24	; 0x01
    25f4:	10 92 7e 00 	sts	0x007E, r1
    25f8:	89 81       	ldd	r24, Y+1	; 0x01
    25fa:	9a 81       	ldd	r25, Y+2	; 0x02
    25fc:	90 93 7d 00 	sts	0x007D, r25
    2600:	80 93 7c 00 	sts	0x007C, r24
    2604:	2b 96       	adiw	r28, 0x0b	; 11
    2606:	de bf       	out	0x3e, r29	; 62
    2608:	cd bf       	out	0x3d, r28	; 61
    260a:	cf 91       	pop	r28
    260c:	df 91       	pop	r29
    260e:	ff 91       	pop	r31
    2610:	ef 91       	pop	r30
    2612:	bf 91       	pop	r27
    2614:	af 91       	pop	r26
    2616:	9f 91       	pop	r25
    2618:	8f 91       	pop	r24
    261a:	7f 91       	pop	r23
    261c:	6f 91       	pop	r22
    261e:	5f 91       	pop	r21
    2620:	3f 91       	pop	r19
    2622:	2f 91       	pop	r18
    2624:	0f 90       	pop	r0
    2626:	0f be       	out	0x3f, r0	; 63
    2628:	0f 90       	pop	r0
    262a:	1f 90       	pop	r1
    262c:	18 95       	reti

0000262e <sleep>:
    262e:	df 93       	push	r29
    2630:	cf 93       	push	r28
    2632:	0f 92       	push	r0
    2634:	cd b7       	in	r28, 0x3d	; 61
    2636:	de b7       	in	r29, 0x3e	; 62
    2638:	89 83       	std	Y+1, r24	; 0x01
    263a:	10 92 e9 00 	sts	0x00E9, r1
    263e:	90 91 e9 00 	lds	r25, 0x00E9
    2642:	89 81       	ldd	r24, Y+1	; 0x01
    2644:	98 17       	cp	r25, r24
    2646:	d8 f3       	brcs	.-10     	; 0x263e <sleep+0x10>
    2648:	0f 90       	pop	r0
    264a:	cf 91       	pop	r28
    264c:	df 91       	pop	r29
    264e:	08 95       	ret

00002650 <mSleep>:
    2650:	df 93       	push	r29
    2652:	cf 93       	push	r28
    2654:	00 d0       	rcall	.+0      	; 0x2656 <mSleep+0x6>
    2656:	0f 92       	push	r0
    2658:	cd b7       	in	r28, 0x3d	; 61
    265a:	de b7       	in	r29, 0x3e	; 62
    265c:	9a 83       	std	Y+2, r25	; 0x02
    265e:	89 83       	std	Y+1, r24	; 0x01
    2660:	03 c0       	rjmp	.+6      	; 0x2668 <mSleep+0x18>
    2662:	8a e0       	ldi	r24, 0x0A	; 10
    2664:	0e 94 17 13 	call	0x262e	; 0x262e <sleep>
    2668:	1b 82       	std	Y+3, r1	; 0x03
    266a:	89 81       	ldd	r24, Y+1	; 0x01
    266c:	9a 81       	ldd	r25, Y+2	; 0x02
    266e:	00 97       	sbiw	r24, 0x00	; 0
    2670:	11 f0       	breq	.+4      	; 0x2676 <mSleep+0x26>
    2672:	81 e0       	ldi	r24, 0x01	; 1
    2674:	8b 83       	std	Y+3, r24	; 0x03
    2676:	89 81       	ldd	r24, Y+1	; 0x01
    2678:	9a 81       	ldd	r25, Y+2	; 0x02
    267a:	01 97       	sbiw	r24, 0x01	; 1
    267c:	9a 83       	std	Y+2, r25	; 0x02
    267e:	89 83       	std	Y+1, r24	; 0x01
    2680:	8b 81       	ldd	r24, Y+3	; 0x03
    2682:	88 23       	and	r24, r24
    2684:	71 f7       	brne	.-36     	; 0x2662 <mSleep+0x12>
    2686:	0f 90       	pop	r0
    2688:	0f 90       	pop	r0
    268a:	0f 90       	pop	r0
    268c:	cf 91       	pop	r28
    268e:	df 91       	pop	r29
    2690:	08 95       	ret

00002692 <delayCycles>:
    2692:	df 93       	push	r29
    2694:	cf 93       	push	r28
    2696:	00 d0       	rcall	.+0      	; 0x2698 <delayCycles+0x6>
    2698:	0f 92       	push	r0
    269a:	cd b7       	in	r28, 0x3d	; 61
    269c:	de b7       	in	r29, 0x3e	; 62
    269e:	9a 83       	std	Y+2, r25	; 0x02
    26a0:	89 83       	std	Y+1, r24	; 0x01
    26a2:	01 c0       	rjmp	.+2      	; 0x26a6 <delayCycles+0x14>
    26a4:	00 00       	nop
    26a6:	1b 82       	std	Y+3, r1	; 0x03
    26a8:	89 81       	ldd	r24, Y+1	; 0x01
    26aa:	9a 81       	ldd	r25, Y+2	; 0x02
    26ac:	00 97       	sbiw	r24, 0x00	; 0
    26ae:	11 f0       	breq	.+4      	; 0x26b4 <delayCycles+0x22>
    26b0:	81 e0       	ldi	r24, 0x01	; 1
    26b2:	8b 83       	std	Y+3, r24	; 0x03
    26b4:	89 81       	ldd	r24, Y+1	; 0x01
    26b6:	9a 81       	ldd	r25, Y+2	; 0x02
    26b8:	01 97       	sbiw	r24, 0x01	; 1
    26ba:	9a 83       	std	Y+2, r25	; 0x02
    26bc:	89 83       	std	Y+1, r24	; 0x01
    26be:	8b 81       	ldd	r24, Y+3	; 0x03
    26c0:	88 23       	and	r24, r24
    26c2:	81 f7       	brne	.-32     	; 0x26a4 <delayCycles+0x12>
    26c4:	0f 90       	pop	r0
    26c6:	0f 90       	pop	r0
    26c8:	0f 90       	pop	r0
    26ca:	cf 91       	pop	r28
    26cc:	df 91       	pop	r29
    26ce:	08 95       	ret

000026d0 <extIntON>:
    26d0:	df 93       	push	r29
    26d2:	cf 93       	push	r28
    26d4:	cd b7       	in	r28, 0x3d	; 61
    26d6:	de b7       	in	r29, 0x3e	; 62
    26d8:	aa e3       	ldi	r26, 0x3A	; 58
    26da:	b0 e0       	ldi	r27, 0x00	; 0
    26dc:	ea e3       	ldi	r30, 0x3A	; 58
    26de:	f0 e0       	ldi	r31, 0x00	; 0
    26e0:	80 81       	ld	r24, Z
    26e2:	80 61       	ori	r24, 0x10	; 16
    26e4:	8c 93       	st	X, r24
    26e6:	ab e3       	ldi	r26, 0x3B	; 59
    26e8:	b0 e0       	ldi	r27, 0x00	; 0
    26ea:	eb e3       	ldi	r30, 0x3B	; 59
    26ec:	f0 e0       	ldi	r31, 0x00	; 0
    26ee:	80 81       	ld	r24, Z
    26f0:	80 61       	ori	r24, 0x10	; 16
    26f2:	8c 93       	st	X, r24
    26f4:	cf 91       	pop	r28
    26f6:	df 91       	pop	r29
    26f8:	08 95       	ret

000026fa <extIntOFF>:
    26fa:	df 93       	push	r29
    26fc:	cf 93       	push	r28
    26fe:	cd b7       	in	r28, 0x3d	; 61
    2700:	de b7       	in	r29, 0x3e	; 62
    2702:	ab e3       	ldi	r26, 0x3B	; 59
    2704:	b0 e0       	ldi	r27, 0x00	; 0
    2706:	eb e3       	ldi	r30, 0x3B	; 59
    2708:	f0 e0       	ldi	r31, 0x00	; 0
    270a:	80 81       	ld	r24, Z
    270c:	8f 7e       	andi	r24, 0xEF	; 239
    270e:	8c 93       	st	X, r24
    2710:	aa e3       	ldi	r26, 0x3A	; 58
    2712:	b0 e0       	ldi	r27, 0x00	; 0
    2714:	ea e3       	ldi	r30, 0x3A	; 58
    2716:	f0 e0       	ldi	r31, 0x00	; 0
    2718:	80 81       	ld	r24, Z
    271a:	8f 7e       	andi	r24, 0xEF	; 239
    271c:	8c 93       	st	X, r24
    271e:	cf 91       	pop	r28
    2720:	df 91       	pop	r29
    2722:	08 95       	ret

00002724 <task_RP6System>:
    2724:	df 93       	push	r29
    2726:	cf 93       	push	r28
    2728:	cd b7       	in	r28, 0x3d	; 61
    272a:	de b7       	in	r29, 0x3e	; 62
    272c:	0e 94 76 04 	call	0x8ec	; 0x8ec <task_ADC>
    2730:	0e 94 d2 0c 	call	0x19a4	; 0x19a4 <task_ACS>
    2734:	0e 94 fe 03 	call	0x7fc	; 0x7fc <task_Bumpers>
    2738:	0e 94 0e 06 	call	0xc1c	; 0xc1c <task_motionControl>
    273c:	cf 91       	pop	r28
    273e:	df 91       	pop	r29
    2740:	08 95       	ret

00002742 <initRobotBase>:
    2742:	df 93       	push	r29
    2744:	cf 93       	push	r28
    2746:	0f 92       	push	r0
    2748:	cd b7       	in	r28, 0x3d	; 61
    274a:	de b7       	in	r29, 0x3e	; 62
    274c:	eb e3       	ldi	r30, 0x3B	; 59
    274e:	f0 e0       	ldi	r31, 0x00	; 0
    2750:	10 82       	st	Z, r1
    2752:	e8 e3       	ldi	r30, 0x38	; 56
    2754:	f0 e0       	ldi	r31, 0x00	; 0
    2756:	10 82       	st	Z, r1
    2758:	e5 e3       	ldi	r30, 0x35	; 53
    275a:	f0 e0       	ldi	r31, 0x00	; 0
    275c:	10 82       	st	Z, r1
    275e:	e2 e3       	ldi	r30, 0x32	; 50
    2760:	f0 e0       	ldi	r31, 0x00	; 0
    2762:	81 e0       	ldi	r24, 0x01	; 1
    2764:	80 83       	st	Z, r24
    2766:	ea e3       	ldi	r30, 0x3A	; 58
    2768:	f0 e0       	ldi	r31, 0x00	; 0
    276a:	10 82       	st	Z, r1
    276c:	e7 e3       	ldi	r30, 0x37	; 55
    276e:	f0 e0       	ldi	r31, 0x00	; 0
    2770:	88 e5       	ldi	r24, 0x58	; 88
    2772:	80 83       	st	Z, r24
    2774:	e4 e3       	ldi	r30, 0x34	; 52
    2776:	f0 e0       	ldi	r31, 0x00	; 0
    2778:	8c e8       	ldi	r24, 0x8C	; 140
    277a:	80 83       	st	Z, r24
    277c:	e1 e3       	ldi	r30, 0x31	; 49
    277e:	f0 e0       	ldi	r31, 0x00	; 0
    2780:	82 ef       	ldi	r24, 0xF2	; 242
    2782:	80 83       	st	Z, r24
    2784:	f8 94       	cli
    2786:	a8 e3       	ldi	r26, 0x38	; 56
    2788:	b0 e0       	ldi	r27, 0x00	; 0
    278a:	e8 e3       	ldi	r30, 0x38	; 56
    278c:	f0 e0       	ldi	r31, 0x00	; 0
    278e:	80 81       	ld	r24, Z
    2790:	8f 7d       	andi	r24, 0xDF	; 223
    2792:	8c 93       	st	X, r24
    2794:	a7 e3       	ldi	r26, 0x37	; 55
    2796:	b0 e0       	ldi	r27, 0x00	; 0
    2798:	e7 e3       	ldi	r30, 0x37	; 55
    279a:	f0 e0       	ldi	r31, 0x00	; 0
    279c:	80 81       	ld	r24, Z
    279e:	80 62       	ori	r24, 0x20	; 32
    27a0:	8c 93       	st	X, r24
    27a2:	8c 91       	ld	r24, X
    27a4:	a2 e3       	ldi	r26, 0x32	; 50
    27a6:	b0 e0       	ldi	r27, 0x00	; 0
    27a8:	e2 e3       	ldi	r30, 0x32	; 50
    27aa:	f0 e0       	ldi	r31, 0x00	; 0
    27ac:	80 81       	ld	r24, Z
    27ae:	8f 77       	andi	r24, 0x7F	; 127
    27b0:	8c 93       	st	X, r24
    27b2:	0e 94 8d 0f 	call	0x1f1a	; 0x1f1a <setACSPwrOff>
    27b6:	e0 e4       	ldi	r30, 0x40	; 64
    27b8:	f0 e0       	ldi	r31, 0x00	; 0
    27ba:	10 82       	st	Z, r1
    27bc:	e9 e2       	ldi	r30, 0x29	; 41
    27be:	f0 e0       	ldi	r31, 0x00	; 0
    27c0:	8c e0       	ldi	r24, 0x0C	; 12
    27c2:	80 83       	st	Z, r24
    27c4:	eb e2       	ldi	r30, 0x2B	; 43
    27c6:	f0 e0       	ldi	r31, 0x00	; 0
    27c8:	10 82       	st	Z, r1
    27ca:	e0 e4       	ldi	r30, 0x40	; 64
    27cc:	f0 e0       	ldi	r31, 0x00	; 0
    27ce:	86 e8       	ldi	r24, 0x86	; 134
    27d0:	80 83       	st	Z, r24
    27d2:	ea e2       	ldi	r30, 0x2A	; 42
    27d4:	f0 e0       	ldi	r31, 0x00	; 0
    27d6:	88 e9       	ldi	r24, 0x98	; 152
    27d8:	80 83       	st	Z, r24
    27da:	e7 e2       	ldi	r30, 0x27	; 39
    27dc:	f0 e0       	ldi	r31, 0x00	; 0
    27de:	10 82       	st	Z, r1
    27e0:	e6 e2       	ldi	r30, 0x26	; 38
    27e2:	f0 e0       	ldi	r31, 0x00	; 0
    27e4:	86 e1       	ldi	r24, 0x16	; 22
    27e6:	80 83       	st	Z, r24
    27e8:	e0 e5       	ldi	r30, 0x50	; 80
    27ea:	f0 e0       	ldi	r31, 0x00	; 0
    27ec:	10 82       	st	Z, r1
    27ee:	e5 e5       	ldi	r30, 0x55	; 85
    27f0:	f0 e0       	ldi	r31, 0x00	; 0
    27f2:	85 e0       	ldi	r24, 0x05	; 5
    27f4:	80 83       	st	Z, r24
    27f6:	eb e5       	ldi	r30, 0x5B	; 91
    27f8:	f0 e0       	ldi	r31, 0x00	; 0
    27fa:	80 ee       	ldi	r24, 0xE0	; 224
    27fc:	80 83       	st	Z, r24
    27fe:	e4 e5       	ldi	r30, 0x54	; 84
    2800:	f0 e0       	ldi	r31, 0x00	; 0
    2802:	10 82       	st	Z, r1
    2804:	e3 e5       	ldi	r30, 0x53	; 83
    2806:	f0 e0       	ldi	r31, 0x00	; 0
    2808:	8a e0       	ldi	r24, 0x0A	; 10
    280a:	80 83       	st	Z, r24
    280c:	ec e5       	ldi	r30, 0x5C	; 92
    280e:	f0 e0       	ldi	r31, 0x00	; 0
    2810:	83 e6       	ldi	r24, 0x63	; 99
    2812:	80 83       	st	Z, r24
    2814:	ef e4       	ldi	r30, 0x4F	; 79
    2816:	f0 e0       	ldi	r31, 0x00	; 0
    2818:	82 ea       	ldi	r24, 0xA2	; 162
    281a:	80 83       	st	Z, r24
    281c:	ee e4       	ldi	r30, 0x4E	; 78
    281e:	f0 e0       	ldi	r31, 0x00	; 0
    2820:	81 e1       	ldi	r24, 0x11	; 17
    2822:	80 83       	st	Z, r24
    2824:	e6 e4       	ldi	r30, 0x46	; 70
    2826:	f0 e0       	ldi	r31, 0x00	; 0
    2828:	82 ed       	ldi	r24, 0xD2	; 210
    282a:	90 e0       	ldi	r25, 0x00	; 0
    282c:	91 83       	std	Z+1, r25	; 0x01
    282e:	80 83       	st	Z, r24
    2830:	ea e4       	ldi	r30, 0x4A	; 74
    2832:	f0 e0       	ldi	r31, 0x00	; 0
    2834:	10 82       	st	Z, r1
    2836:	e8 e4       	ldi	r30, 0x48	; 72
    2838:	f0 e0       	ldi	r31, 0x00	; 0
    283a:	10 82       	st	Z, r1
    283c:	80 e0       	ldi	r24, 0x00	; 0
    283e:	60 e0       	ldi	r22, 0x00	; 0
    2840:	0e 94 31 0b 	call	0x1662	; 0x1662 <setMotorDir>
    2844:	e5 e4       	ldi	r30, 0x45	; 69
    2846:	f0 e0       	ldi	r31, 0x00	; 0
    2848:	89 e0       	ldi	r24, 0x09	; 9
    284a:	80 83       	st	Z, r24
    284c:	e3 e4       	ldi	r30, 0x43	; 67
    284e:	f0 e0       	ldi	r31, 0x00	; 0
    2850:	8e e6       	ldi	r24, 0x6E	; 110
    2852:	80 83       	st	Z, r24
    2854:	e9 e5       	ldi	r30, 0x59	; 89
    2856:	f0 e0       	ldi	r31, 0x00	; 0
    2858:	82 e0       	ldi	r24, 0x02	; 2
    285a:	80 83       	st	Z, r24
    285c:	80 91 9d 00 	lds	r24, 0x009D
    2860:	81 60       	ori	r24, 0x01	; 1
    2862:	80 93 9d 00 	sts	0x009D, r24
    2866:	81 e0       	ldi	r24, 0x01	; 1
    2868:	80 93 6b 00 	sts	0x006B, r24
    286c:	78 94       	sei
    286e:	0f 90       	pop	r0
    2870:	cf 91       	pop	r28
    2872:	df 91       	pop	r29
    2874:	08 95       	ret

00002876 <I2CTWI_initSlave>:
    2876:	df 93       	push	r29
    2878:	cf 93       	push	r28
    287a:	0f 92       	push	r0
    287c:	cd b7       	in	r28, 0x3d	; 61
    287e:	de b7       	in	r29, 0x3e	; 62
    2880:	89 83       	std	Y+1, r24	; 0x01
    2882:	f8 94       	cli
    2884:	e2 e2       	ldi	r30, 0x22	; 34
    2886:	f0 e0       	ldi	r31, 0x00	; 0
    2888:	89 81       	ldd	r24, Y+1	; 0x01
    288a:	80 83       	st	Z, r24
    288c:	e3 e2       	ldi	r30, 0x23	; 35
    288e:	f0 e0       	ldi	r31, 0x00	; 0
    2890:	8f ef       	ldi	r24, 0xFF	; 255
    2892:	80 83       	st	Z, r24
    2894:	e6 e5       	ldi	r30, 0x56	; 86
    2896:	f0 e0       	ldi	r31, 0x00	; 0
    2898:	84 e0       	ldi	r24, 0x04	; 4
    289a:	80 83       	st	Z, r24
    289c:	78 94       	sei
    289e:	e6 e5       	ldi	r30, 0x56	; 86
    28a0:	f0 e0       	ldi	r31, 0x00	; 0
    28a2:	85 ec       	ldi	r24, 0xC5	; 197
    28a4:	80 83       	st	Z, r24
    28a6:	0f 90       	pop	r0
    28a8:	cf 91       	pop	r28
    28aa:	df 91       	pop	r29
    28ac:	08 95       	ret

000028ae <__vector_19>:
    28ae:	1f 92       	push	r1
    28b0:	0f 92       	push	r0
    28b2:	0f b6       	in	r0, 0x3f	; 63
    28b4:	0f 92       	push	r0
    28b6:	11 24       	eor	r1, r1
    28b8:	2f 93       	push	r18
    28ba:	3f 93       	push	r19
    28bc:	8f 93       	push	r24
    28be:	9f 93       	push	r25
    28c0:	af 93       	push	r26
    28c2:	bf 93       	push	r27
    28c4:	ef 93       	push	r30
    28c6:	ff 93       	push	r31
    28c8:	df 93       	push	r29
    28ca:	cf 93       	push	r28
    28cc:	00 d0       	rcall	.+0      	; 0x28ce <__vector_19+0x20>
    28ce:	cd b7       	in	r28, 0x3d	; 61
    28d0:	de b7       	in	r29, 0x3e	; 62
    28d2:	e1 e2       	ldi	r30, 0x21	; 33
    28d4:	f0 e0       	ldi	r31, 0x00	; 0
    28d6:	80 81       	ld	r24, Z
    28d8:	28 2f       	mov	r18, r24
    28da:	30 e0       	ldi	r19, 0x00	; 0
    28dc:	3a 83       	std	Y+2, r19	; 0x02
    28de:	29 83       	std	Y+1, r18	; 0x01
    28e0:	89 81       	ldd	r24, Y+1	; 0x01
    28e2:	9a 81       	ldd	r25, Y+2	; 0x02
    28e4:	80 39       	cpi	r24, 0x90	; 144
    28e6:	91 05       	cpc	r25, r1
    28e8:	09 f4       	brne	.+2      	; 0x28ec <__vector_19+0x3e>
    28ea:	9c c0       	rjmp	.+312    	; 0x2a24 <__vector_19+0x176>
    28ec:	29 81       	ldd	r18, Y+1	; 0x01
    28ee:	3a 81       	ldd	r19, Y+2	; 0x02
    28f0:	21 39       	cpi	r18, 0x91	; 145
    28f2:	31 05       	cpc	r19, r1
    28f4:	9c f4       	brge	.+38     	; 0x291c <__vector_19+0x6e>
    28f6:	89 81       	ldd	r24, Y+1	; 0x01
    28f8:	9a 81       	ldd	r25, Y+2	; 0x02
    28fa:	80 37       	cpi	r24, 0x70	; 112
    28fc:	91 05       	cpc	r25, r1
    28fe:	09 f4       	brne	.+2      	; 0x2902 <__vector_19+0x54>
    2900:	89 c0       	rjmp	.+274    	; 0x2a14 <__vector_19+0x166>
    2902:	29 81       	ldd	r18, Y+1	; 0x01
    2904:	3a 81       	ldd	r19, Y+2	; 0x02
    2906:	20 38       	cpi	r18, 0x80	; 128
    2908:	31 05       	cpc	r19, r1
    290a:	09 f4       	brne	.+2      	; 0x290e <__vector_19+0x60>
    290c:	5a c0       	rjmp	.+180    	; 0x29c2 <__vector_19+0x114>
    290e:	89 81       	ldd	r24, Y+1	; 0x01
    2910:	9a 81       	ldd	r25, Y+2	; 0x02
    2912:	80 36       	cpi	r24, 0x60	; 96
    2914:	91 05       	cpc	r25, r1
    2916:	09 f4       	brne	.+2      	; 0x291a <__vector_19+0x6c>
    2918:	49 c0       	rjmp	.+146    	; 0x29ac <__vector_19+0xfe>
    291a:	98 c0       	rjmp	.+304    	; 0x2a4c <__vector_19+0x19e>
    291c:	29 81       	ldd	r18, Y+1	; 0x01
    291e:	3a 81       	ldd	r19, Y+2	; 0x02
    2920:	28 3a       	cpi	r18, 0xA8	; 168
    2922:	31 05       	cpc	r19, r1
    2924:	b9 f0       	breq	.+46     	; 0x2954 <__vector_19+0xa6>
    2926:	89 81       	ldd	r24, Y+1	; 0x01
    2928:	9a 81       	ldd	r25, Y+2	; 0x02
    292a:	89 3a       	cpi	r24, 0xA9	; 169
    292c:	91 05       	cpc	r25, r1
    292e:	3c f4       	brge	.+14     	; 0x293e <__vector_19+0x90>
    2930:	29 81       	ldd	r18, Y+1	; 0x01
    2932:	3a 81       	ldd	r19, Y+2	; 0x02
    2934:	20 3a       	cpi	r18, 0xA0	; 160
    2936:	31 05       	cpc	r19, r1
    2938:	09 f4       	brne	.+2      	; 0x293c <__vector_19+0x8e>
    293a:	7e c0       	rjmp	.+252    	; 0x2a38 <__vector_19+0x18a>
    293c:	87 c0       	rjmp	.+270    	; 0x2a4c <__vector_19+0x19e>
    293e:	89 81       	ldd	r24, Y+1	; 0x01
    2940:	9a 81       	ldd	r25, Y+2	; 0x02
    2942:	88 3b       	cpi	r24, 0xB8	; 184
    2944:	91 05       	cpc	r25, r1
    2946:	61 f0       	breq	.+24     	; 0x2960 <__vector_19+0xb2>
    2948:	29 81       	ldd	r18, Y+1	; 0x01
    294a:	3a 81       	ldd	r19, Y+2	; 0x02
    294c:	20 3c       	cpi	r18, 0xC0	; 192
    294e:	31 05       	cpc	r19, r1
    2950:	f9 f0       	breq	.+62     	; 0x2990 <__vector_19+0xe2>
    2952:	7c c0       	rjmp	.+248    	; 0x2a4c <__vector_19+0x19e>
    2954:	84 e0       	ldi	r24, 0x04	; 4
    2956:	80 93 86 00 	sts	0x0086, r24
    295a:	81 e0       	ldi	r24, 0x01	; 1
    295c:	80 93 84 00 	sts	0x0084, r24
    2960:	80 91 86 00 	lds	r24, 0x0086
    2964:	84 30       	cpi	r24, 0x04	; 4
    2966:	79 f4       	brne	.+30     	; 0x2986 <__vector_19+0xd8>
    2968:	a3 e2       	ldi	r26, 0x23	; 35
    296a:	b0 e0       	ldi	r27, 0x00	; 0
    296c:	20 91 87 00 	lds	r18, 0x0087
    2970:	82 2f       	mov	r24, r18
    2972:	90 e0       	ldi	r25, 0x00	; 0
    2974:	fc 01       	movw	r30, r24
    2976:	e4 5f       	subi	r30, 0xF4	; 244
    2978:	fe 4f       	sbci	r31, 0xFE	; 254
    297a:	80 81       	ld	r24, Z
    297c:	8c 93       	st	X, r24
    297e:	82 2f       	mov	r24, r18
    2980:	8f 5f       	subi	r24, 0xFF	; 255
    2982:	80 93 87 00 	sts	0x0087, r24
    2986:	e6 e5       	ldi	r30, 0x56	; 86
    2988:	f0 e0       	ldi	r31, 0x00	; 0
    298a:	85 ec       	ldi	r24, 0xC5	; 197
    298c:	80 83       	st	Z, r24
    298e:	62 c0       	rjmp	.+196    	; 0x2a54 <__vector_19+0x1a6>
    2990:	10 92 86 00 	sts	0x0086, r1
    2994:	10 92 87 00 	sts	0x0087, r1
    2998:	10 92 84 00 	sts	0x0084, r1
    299c:	81 e0       	ldi	r24, 0x01	; 1
    299e:	80 93 82 00 	sts	0x0082, r24
    29a2:	e6 e5       	ldi	r30, 0x56	; 86
    29a4:	f0 e0       	ldi	r31, 0x00	; 0
    29a6:	85 ec       	ldi	r24, 0xC5	; 197
    29a8:	80 83       	st	Z, r24
    29aa:	54 c0       	rjmp	.+168    	; 0x2a54 <__vector_19+0x1a6>
    29ac:	81 e0       	ldi	r24, 0x01	; 1
    29ae:	80 93 85 00 	sts	0x0085, r24
    29b2:	82 e0       	ldi	r24, 0x02	; 2
    29b4:	80 93 86 00 	sts	0x0086, r24
    29b8:	e6 e5       	ldi	r30, 0x56	; 86
    29ba:	f0 e0       	ldi	r31, 0x00	; 0
    29bc:	85 ec       	ldi	r24, 0xC5	; 197
    29be:	80 83       	st	Z, r24
    29c0:	49 c0       	rjmp	.+146    	; 0x2a54 <__vector_19+0x1a6>
    29c2:	80 91 86 00 	lds	r24, 0x0086
    29c6:	82 30       	cpi	r24, 0x02	; 2
    29c8:	69 f4       	brne	.+26     	; 0x29e4 <__vector_19+0x136>
    29ca:	e3 e2       	ldi	r30, 0x23	; 35
    29cc:	f0 e0       	ldi	r31, 0x00	; 0
    29ce:	80 81       	ld	r24, Z
    29d0:	80 93 87 00 	sts	0x0087, r24
    29d4:	80 91 87 00 	lds	r24, 0x0087
    29d8:	80 93 83 00 	sts	0x0083, r24
    29dc:	83 e0       	ldi	r24, 0x03	; 3
    29de:	80 93 86 00 	sts	0x0086, r24
    29e2:	13 c0       	rjmp	.+38     	; 0x2a0a <__vector_19+0x15c>
    29e4:	80 91 86 00 	lds	r24, 0x0086
    29e8:	83 30       	cpi	r24, 0x03	; 3
    29ea:	79 f4       	brne	.+30     	; 0x2a0a <__vector_19+0x15c>
    29ec:	30 91 87 00 	lds	r19, 0x0087
    29f0:	83 2f       	mov	r24, r19
    29f2:	90 e0       	ldi	r25, 0x00	; 0
    29f4:	e3 e2       	ldi	r30, 0x23	; 35
    29f6:	f0 e0       	ldi	r31, 0x00	; 0
    29f8:	20 81       	ld	r18, Z
    29fa:	fc 01       	movw	r30, r24
    29fc:	e4 50       	subi	r30, 0x04	; 4
    29fe:	ff 4f       	sbci	r31, 0xFF	; 255
    2a00:	20 83       	st	Z, r18
    2a02:	83 2f       	mov	r24, r19
    2a04:	8f 5f       	subi	r24, 0xFF	; 255
    2a06:	80 93 87 00 	sts	0x0087, r24
    2a0a:	e6 e5       	ldi	r30, 0x56	; 86
    2a0c:	f0 e0       	ldi	r31, 0x00	; 0
    2a0e:	85 ec       	ldi	r24, 0xC5	; 197
    2a10:	80 83       	st	Z, r24
    2a12:	20 c0       	rjmp	.+64     	; 0x2a54 <__vector_19+0x1a6>
    2a14:	81 e0       	ldi	r24, 0x01	; 1
    2a16:	80 93 86 00 	sts	0x0086, r24
    2a1a:	e6 e5       	ldi	r30, 0x56	; 86
    2a1c:	f0 e0       	ldi	r31, 0x00	; 0
    2a1e:	85 ec       	ldi	r24, 0xC5	; 197
    2a20:	80 83       	st	Z, r24
    2a22:	18 c0       	rjmp	.+48     	; 0x2a54 <__vector_19+0x1a6>
    2a24:	e3 e2       	ldi	r30, 0x23	; 35
    2a26:	f0 e0       	ldi	r31, 0x00	; 0
    2a28:	80 81       	ld	r24, Z
    2a2a:	80 93 fb 00 	sts	0x00FB, r24
    2a2e:	e6 e5       	ldi	r30, 0x56	; 86
    2a30:	f0 e0       	ldi	r31, 0x00	; 0
    2a32:	85 ec       	ldi	r24, 0xC5	; 197
    2a34:	80 83       	st	Z, r24
    2a36:	0e c0       	rjmp	.+28     	; 0x2a54 <__vector_19+0x1a6>
    2a38:	85 e0       	ldi	r24, 0x05	; 5
    2a3a:	80 93 86 00 	sts	0x0086, r24
    2a3e:	e6 e5       	ldi	r30, 0x56	; 86
    2a40:	f0 e0       	ldi	r31, 0x00	; 0
    2a42:	85 ec       	ldi	r24, 0xC5	; 197
    2a44:	80 83       	st	Z, r24
    2a46:	10 92 85 00 	sts	0x0085, r1
    2a4a:	04 c0       	rjmp	.+8      	; 0x2a54 <__vector_19+0x1a6>
    2a4c:	e6 e5       	ldi	r30, 0x56	; 86
    2a4e:	f0 e0       	ldi	r31, 0x00	; 0
    2a50:	84 e8       	ldi	r24, 0x84	; 132
    2a52:	80 83       	st	Z, r24
    2a54:	0f 90       	pop	r0
    2a56:	0f 90       	pop	r0
    2a58:	cf 91       	pop	r28
    2a5a:	df 91       	pop	r29
    2a5c:	ff 91       	pop	r31
    2a5e:	ef 91       	pop	r30
    2a60:	bf 91       	pop	r27
    2a62:	af 91       	pop	r26
    2a64:	9f 91       	pop	r25
    2a66:	8f 91       	pop	r24
    2a68:	3f 91       	pop	r19
    2a6a:	2f 91       	pop	r18
    2a6c:	0f 90       	pop	r0
    2a6e:	0f be       	out	0x3f, r0	; 63
    2a70:	0f 90       	pop	r0
    2a72:	1f 90       	pop	r1
    2a74:	18 95       	reti

00002a76 <writeChar>:
    2a76:	df 93       	push	r29
    2a78:	cf 93       	push	r28
    2a7a:	0f 92       	push	r0
    2a7c:	cd b7       	in	r28, 0x3d	; 61
    2a7e:	de b7       	in	r29, 0x3e	; 62
    2a80:	89 83       	std	Y+1, r24	; 0x01
    2a82:	eb e2       	ldi	r30, 0x2B	; 43
    2a84:	f0 e0       	ldi	r31, 0x00	; 0
    2a86:	80 81       	ld	r24, Z
    2a88:	88 2f       	mov	r24, r24
    2a8a:	90 e0       	ldi	r25, 0x00	; 0
    2a8c:	80 72       	andi	r24, 0x20	; 32
    2a8e:	90 70       	andi	r25, 0x00	; 0
    2a90:	00 97       	sbiw	r24, 0x00	; 0
    2a92:	b9 f3       	breq	.-18     	; 0x2a82 <writeChar+0xc>
    2a94:	ec e2       	ldi	r30, 0x2C	; 44
    2a96:	f0 e0       	ldi	r31, 0x00	; 0
    2a98:	89 81       	ldd	r24, Y+1	; 0x01
    2a9a:	80 83       	st	Z, r24
    2a9c:	0f 90       	pop	r0
    2a9e:	cf 91       	pop	r28
    2aa0:	df 91       	pop	r29
    2aa2:	08 95       	ret

00002aa4 <writeString>:
    2aa4:	df 93       	push	r29
    2aa6:	cf 93       	push	r28
    2aa8:	00 d0       	rcall	.+0      	; 0x2aaa <writeString+0x6>
    2aaa:	cd b7       	in	r28, 0x3d	; 61
    2aac:	de b7       	in	r29, 0x3e	; 62
    2aae:	9a 83       	std	Y+2, r25	; 0x02
    2ab0:	89 83       	std	Y+1, r24	; 0x01
    2ab2:	0b c0       	rjmp	.+22     	; 0x2aca <writeString+0x26>
    2ab4:	e9 81       	ldd	r30, Y+1	; 0x01
    2ab6:	fa 81       	ldd	r31, Y+2	; 0x02
    2ab8:	20 81       	ld	r18, Z
    2aba:	89 81       	ldd	r24, Y+1	; 0x01
    2abc:	9a 81       	ldd	r25, Y+2	; 0x02
    2abe:	01 96       	adiw	r24, 0x01	; 1
    2ac0:	9a 83       	std	Y+2, r25	; 0x02
    2ac2:	89 83       	std	Y+1, r24	; 0x01
    2ac4:	82 2f       	mov	r24, r18
    2ac6:	0e 94 3b 15 	call	0x2a76	; 0x2a76 <writeChar>
    2aca:	e9 81       	ldd	r30, Y+1	; 0x01
    2acc:	fa 81       	ldd	r31, Y+2	; 0x02
    2ace:	80 81       	ld	r24, Z
    2ad0:	88 23       	and	r24, r24
    2ad2:	81 f7       	brne	.-32     	; 0x2ab4 <writeString+0x10>
    2ad4:	0f 90       	pop	r0
    2ad6:	0f 90       	pop	r0
    2ad8:	cf 91       	pop	r28
    2ada:	df 91       	pop	r29
    2adc:	08 95       	ret

00002ade <writeNStringP>:
    2ade:	df 93       	push	r29
    2ae0:	cf 93       	push	r28
    2ae2:	00 d0       	rcall	.+0      	; 0x2ae4 <writeNStringP+0x6>
    2ae4:	00 d0       	rcall	.+0      	; 0x2ae6 <writeNStringP+0x8>
    2ae6:	00 d0       	rcall	.+0      	; 0x2ae8 <writeNStringP+0xa>
    2ae8:	cd b7       	in	r28, 0x3d	; 61
    2aea:	de b7       	in	r29, 0x3e	; 62
    2aec:	9e 83       	std	Y+6, r25	; 0x06
    2aee:	8d 83       	std	Y+5, r24	; 0x05
    2af0:	03 c0       	rjmp	.+6      	; 0x2af8 <writeNStringP+0x1a>
    2af2:	8c 81       	ldd	r24, Y+4	; 0x04
    2af4:	0e 94 3b 15 	call	0x2a76	; 0x2a76 <writeChar>
    2af8:	8d 81       	ldd	r24, Y+5	; 0x05
    2afa:	9e 81       	ldd	r25, Y+6	; 0x06
    2afc:	9b 83       	std	Y+3, r25	; 0x03
    2afe:	8a 83       	std	Y+2, r24	; 0x02
    2b00:	8d 81       	ldd	r24, Y+5	; 0x05
    2b02:	9e 81       	ldd	r25, Y+6	; 0x06
    2b04:	01 96       	adiw	r24, 0x01	; 1
    2b06:	9e 83       	std	Y+6, r25	; 0x06
    2b08:	8d 83       	std	Y+5, r24	; 0x05
    2b0a:	ea 81       	ldd	r30, Y+2	; 0x02
    2b0c:	fb 81       	ldd	r31, Y+3	; 0x03
    2b0e:	84 91       	lpm	r24, Z+
    2b10:	89 83       	std	Y+1, r24	; 0x01
    2b12:	89 81       	ldd	r24, Y+1	; 0x01
    2b14:	8c 83       	std	Y+4, r24	; 0x04
    2b16:	8c 81       	ldd	r24, Y+4	; 0x04
    2b18:	88 23       	and	r24, r24
    2b1a:	59 f7       	brne	.-42     	; 0x2af2 <writeNStringP+0x14>
    2b1c:	26 96       	adiw	r28, 0x06	; 6
    2b1e:	0f b6       	in	r0, 0x3f	; 63
    2b20:	f8 94       	cli
    2b22:	de bf       	out	0x3e, r29	; 62
    2b24:	0f be       	out	0x3f, r0	; 63
    2b26:	cd bf       	out	0x3d, r28	; 61
    2b28:	cf 91       	pop	r28
    2b2a:	df 91       	pop	r29
    2b2c:	08 95       	ret

00002b2e <writeStringLength>:
    2b2e:	df 93       	push	r29
    2b30:	cf 93       	push	r28
    2b32:	00 d0       	rcall	.+0      	; 0x2b34 <writeStringLength+0x6>
    2b34:	00 d0       	rcall	.+0      	; 0x2b36 <writeStringLength+0x8>
    2b36:	cd b7       	in	r28, 0x3d	; 61
    2b38:	de b7       	in	r29, 0x3e	; 62
    2b3a:	9a 83       	std	Y+2, r25	; 0x02
    2b3c:	89 83       	std	Y+1, r24	; 0x01
    2b3e:	6b 83       	std	Y+3, r22	; 0x03
    2b40:	4c 83       	std	Y+4, r20	; 0x04
    2b42:	8c 81       	ldd	r24, Y+4	; 0x04
    2b44:	28 2f       	mov	r18, r24
    2b46:	30 e0       	ldi	r19, 0x00	; 0
    2b48:	89 81       	ldd	r24, Y+1	; 0x01
    2b4a:	9a 81       	ldd	r25, Y+2	; 0x02
    2b4c:	82 0f       	add	r24, r18
    2b4e:	93 1f       	adc	r25, r19
    2b50:	9a 83       	std	Y+2, r25	; 0x02
    2b52:	89 83       	std	Y+1, r24	; 0x01
    2b54:	0e c0       	rjmp	.+28     	; 0x2b72 <writeStringLength+0x44>
    2b56:	e9 81       	ldd	r30, Y+1	; 0x01
    2b58:	fa 81       	ldd	r31, Y+2	; 0x02
    2b5a:	20 81       	ld	r18, Z
    2b5c:	89 81       	ldd	r24, Y+1	; 0x01
    2b5e:	9a 81       	ldd	r25, Y+2	; 0x02
    2b60:	01 96       	adiw	r24, 0x01	; 1
    2b62:	9a 83       	std	Y+2, r25	; 0x02
    2b64:	89 83       	std	Y+1, r24	; 0x01
    2b66:	82 2f       	mov	r24, r18
    2b68:	0e 94 3b 15 	call	0x2a76	; 0x2a76 <writeChar>
    2b6c:	8b 81       	ldd	r24, Y+3	; 0x03
    2b6e:	81 50       	subi	r24, 0x01	; 1
    2b70:	8b 83       	std	Y+3, r24	; 0x03
    2b72:	e9 81       	ldd	r30, Y+1	; 0x01
    2b74:	fa 81       	ldd	r31, Y+2	; 0x02
    2b76:	80 81       	ld	r24, Z
    2b78:	88 23       	and	r24, r24
    2b7a:	19 f0       	breq	.+6      	; 0x2b82 <writeStringLength+0x54>
    2b7c:	8b 81       	ldd	r24, Y+3	; 0x03
    2b7e:	88 23       	and	r24, r24
    2b80:	51 f7       	brne	.-44     	; 0x2b56 <writeStringLength+0x28>
    2b82:	0f 90       	pop	r0
    2b84:	0f 90       	pop	r0
    2b86:	0f 90       	pop	r0
    2b88:	0f 90       	pop	r0
    2b8a:	cf 91       	pop	r28
    2b8c:	df 91       	pop	r29
    2b8e:	08 95       	ret

00002b90 <writeInteger>:
    2b90:	df 93       	push	r29
    2b92:	cf 93       	push	r28
    2b94:	cd b7       	in	r28, 0x3d	; 61
    2b96:	de b7       	in	r29, 0x3e	; 62
    2b98:	64 97       	sbiw	r28, 0x14	; 20
    2b9a:	0f b6       	in	r0, 0x3f	; 63
    2b9c:	f8 94       	cli
    2b9e:	de bf       	out	0x3e, r29	; 62
    2ba0:	0f be       	out	0x3f, r0	; 63
    2ba2:	cd bf       	out	0x3d, r28	; 61
    2ba4:	9b 8b       	std	Y+19, r25	; 0x13
    2ba6:	8a 8b       	std	Y+18, r24	; 0x12
    2ba8:	6c 8b       	std	Y+20, r22	; 0x14
    2baa:	8c 89       	ldd	r24, Y+20	; 0x14
    2bac:	48 2f       	mov	r20, r24
    2bae:	50 e0       	ldi	r21, 0x00	; 0
    2bb0:	8a 89       	ldd	r24, Y+18	; 0x12
    2bb2:	9b 89       	ldd	r25, Y+19	; 0x13
    2bb4:	9e 01       	movw	r18, r28
    2bb6:	2f 5f       	subi	r18, 0xFF	; 255
    2bb8:	3f 4f       	sbci	r19, 0xFF	; 255
    2bba:	b9 01       	movw	r22, r18
    2bbc:	0e 94 78 17 	call	0x2ef0	; 0x2ef0 <itoa>
    2bc0:	ce 01       	movw	r24, r28
    2bc2:	01 96       	adiw	r24, 0x01	; 1
    2bc4:	0e 94 52 15 	call	0x2aa4	; 0x2aa4 <writeString>
    2bc8:	64 96       	adiw	r28, 0x14	; 20
    2bca:	0f b6       	in	r0, 0x3f	; 63
    2bcc:	f8 94       	cli
    2bce:	de bf       	out	0x3e, r29	; 62
    2bd0:	0f be       	out	0x3f, r0	; 63
    2bd2:	cd bf       	out	0x3d, r28	; 61
    2bd4:	cf 91       	pop	r28
    2bd6:	df 91       	pop	r29
    2bd8:	08 95       	ret

00002bda <writeIntegerLength>:
    2bda:	df 93       	push	r29
    2bdc:	cf 93       	push	r28
    2bde:	cd b7       	in	r28, 0x3d	; 61
    2be0:	de b7       	in	r29, 0x3e	; 62
    2be2:	66 97       	sbiw	r28, 0x16	; 22
    2be4:	0f b6       	in	r0, 0x3f	; 63
    2be6:	f8 94       	cli
    2be8:	de bf       	out	0x3e, r29	; 62
    2bea:	0f be       	out	0x3f, r0	; 63
    2bec:	cd bf       	out	0x3d, r28	; 61
    2bee:	9c 8b       	std	Y+20, r25	; 0x14
    2bf0:	8b 8b       	std	Y+19, r24	; 0x13
    2bf2:	6d 8b       	std	Y+21, r22	; 0x15
    2bf4:	4e 8b       	std	Y+22, r20	; 0x16
    2bf6:	8d 89       	ldd	r24, Y+21	; 0x15
    2bf8:	48 2f       	mov	r20, r24
    2bfa:	50 e0       	ldi	r21, 0x00	; 0
    2bfc:	8b 89       	ldd	r24, Y+19	; 0x13
    2bfe:	9c 89       	ldd	r25, Y+20	; 0x14
    2c00:	9e 01       	movw	r18, r28
    2c02:	2e 5f       	subi	r18, 0xFE	; 254
    2c04:	3f 4f       	sbci	r19, 0xFF	; 255
    2c06:	b9 01       	movw	r22, r18
    2c08:	0e 94 78 17 	call	0x2ef0	; 0x2ef0 <itoa>
    2c0c:	ce 01       	movw	r24, r28
    2c0e:	02 96       	adiw	r24, 0x02	; 2
    2c10:	0e 94 6f 17 	call	0x2ede	; 0x2ede <strlen>
    2c14:	98 2f       	mov	r25, r24
    2c16:	8e 89       	ldd	r24, Y+22	; 0x16
    2c18:	89 1b       	sub	r24, r25
    2c1a:	89 83       	std	Y+1, r24	; 0x01
    2c1c:	89 81       	ldd	r24, Y+1	; 0x01
    2c1e:	18 16       	cp	r1, r24
    2c20:	7c f4       	brge	.+30     	; 0x2c40 <writeIntegerLength+0x66>
    2c22:	06 c0       	rjmp	.+12     	; 0x2c30 <writeIntegerLength+0x56>
    2c24:	89 81       	ldd	r24, Y+1	; 0x01
    2c26:	81 50       	subi	r24, 0x01	; 1
    2c28:	89 83       	std	Y+1, r24	; 0x01
    2c2a:	80 e3       	ldi	r24, 0x30	; 48
    2c2c:	0e 94 3b 15 	call	0x2a76	; 0x2a76 <writeChar>
    2c30:	89 81       	ldd	r24, Y+1	; 0x01
    2c32:	18 16       	cp	r1, r24
    2c34:	bc f3       	brlt	.-18     	; 0x2c24 <writeIntegerLength+0x4a>
    2c36:	ce 01       	movw	r24, r28
    2c38:	02 96       	adiw	r24, 0x02	; 2
    2c3a:	0e 94 52 15 	call	0x2aa4	; 0x2aa4 <writeString>
    2c3e:	09 c0       	rjmp	.+18     	; 0x2c52 <writeIntegerLength+0x78>
    2c40:	89 81       	ldd	r24, Y+1	; 0x01
    2c42:	81 95       	neg	r24
    2c44:	28 2f       	mov	r18, r24
    2c46:	ce 01       	movw	r24, r28
    2c48:	02 96       	adiw	r24, 0x02	; 2
    2c4a:	6e 89       	ldd	r22, Y+22	; 0x16
    2c4c:	42 2f       	mov	r20, r18
    2c4e:	0e 94 97 15 	call	0x2b2e	; 0x2b2e <writeStringLength>
    2c52:	66 96       	adiw	r28, 0x16	; 22
    2c54:	0f b6       	in	r0, 0x3f	; 63
    2c56:	f8 94       	cli
    2c58:	de bf       	out	0x3e, r29	; 62
    2c5a:	0f be       	out	0x3f, r0	; 63
    2c5c:	cd bf       	out	0x3d, r28	; 61
    2c5e:	cf 91       	pop	r28
    2c60:	df 91       	pop	r29
    2c62:	08 95       	ret

00002c64 <__vector_13>:
    2c64:	1f 92       	push	r1
    2c66:	0f 92       	push	r0
    2c68:	0f b6       	in	r0, 0x3f	; 63
    2c6a:	0f 92       	push	r0
    2c6c:	11 24       	eor	r1, r1
    2c6e:	2f 93       	push	r18
    2c70:	3f 93       	push	r19
    2c72:	8f 93       	push	r24
    2c74:	9f 93       	push	r25
    2c76:	ef 93       	push	r30
    2c78:	ff 93       	push	r31
    2c7a:	df 93       	push	r29
    2c7c:	cf 93       	push	r28
    2c7e:	cd b7       	in	r28, 0x3d	; 61
    2c80:	de b7       	in	r29, 0x3e	; 62
    2c82:	80 91 8b 00 	lds	r24, 0x008B
    2c86:	90 91 8a 00 	lds	r25, 0x008A
    2c8a:	89 1b       	sub	r24, r25
    2c8c:	80 32       	cpi	r24, 0x20	; 32
    2c8e:	e8 f4       	brcc	.+58     	; 0x2cca <__vector_13+0x66>
    2c90:	90 91 89 00 	lds	r25, 0x0089
    2c94:	29 2f       	mov	r18, r25
    2c96:	30 e0       	ldi	r19, 0x00	; 0
    2c98:	ec e2       	ldi	r30, 0x2C	; 44
    2c9a:	f0 e0       	ldi	r31, 0x00	; 0
    2c9c:	80 81       	ld	r24, Z
    2c9e:	f9 01       	movw	r30, r18
    2ca0:	e3 5c       	subi	r30, 0xC3	; 195
    2ca2:	fe 4f       	sbci	r31, 0xFE	; 254
    2ca4:	80 83       	st	Z, r24
    2ca6:	89 2f       	mov	r24, r25
    2ca8:	8f 5f       	subi	r24, 0xFF	; 255
    2caa:	80 93 89 00 	sts	0x0089, r24
    2cae:	80 91 8b 00 	lds	r24, 0x008B
    2cb2:	8f 5f       	subi	r24, 0xFF	; 255
    2cb4:	80 93 8b 00 	sts	0x008B, r24
    2cb8:	80 91 89 00 	lds	r24, 0x0089
    2cbc:	81 32       	cpi	r24, 0x21	; 33
    2cbe:	10 f0       	brcs	.+4      	; 0x2cc4 <__vector_13+0x60>
    2cc0:	10 92 89 00 	sts	0x0089, r1
    2cc4:	10 92 3c 01 	sts	0x013C, r1
    2cc8:	08 c0       	rjmp	.+16     	; 0x2cda <__vector_13+0x76>
    2cca:	ec e2       	ldi	r30, 0x2C	; 44
    2ccc:	f0 e0       	ldi	r31, 0x00	; 0
    2cce:	80 81       	ld	r24, Z
    2cd0:	80 93 8c 00 	sts	0x008C, r24
    2cd4:	81 e0       	ldi	r24, 0x01	; 1
    2cd6:	80 93 3c 01 	sts	0x013C, r24
    2cda:	cf 91       	pop	r28
    2cdc:	df 91       	pop	r29
    2cde:	ff 91       	pop	r31
    2ce0:	ef 91       	pop	r30
    2ce2:	9f 91       	pop	r25
    2ce4:	8f 91       	pop	r24
    2ce6:	3f 91       	pop	r19
    2ce8:	2f 91       	pop	r18
    2cea:	0f 90       	pop	r0
    2cec:	0f be       	out	0x3f, r0	; 63
    2cee:	0f 90       	pop	r0
    2cf0:	1f 90       	pop	r1
    2cf2:	18 95       	reti

00002cf4 <readChar>:
    2cf4:	df 93       	push	r29
    2cf6:	cf 93       	push	r28
    2cf8:	0f 92       	push	r0
    2cfa:	cd b7       	in	r28, 0x3d	; 61
    2cfc:	de b7       	in	r29, 0x3e	; 62
    2cfe:	10 92 3c 01 	sts	0x013C, r1
    2d02:	90 91 8b 00 	lds	r25, 0x008B
    2d06:	80 91 8a 00 	lds	r24, 0x008A
    2d0a:	98 17       	cp	r25, r24
    2d0c:	c9 f0       	breq	.+50     	; 0x2d40 <readChar+0x4c>
    2d0e:	80 91 8a 00 	lds	r24, 0x008A
    2d12:	8f 5f       	subi	r24, 0xFF	; 255
    2d14:	80 93 8a 00 	sts	0x008A, r24
    2d18:	80 91 88 00 	lds	r24, 0x0088
    2d1c:	81 32       	cpi	r24, 0x21	; 33
    2d1e:	10 f0       	brcs	.+4      	; 0x2d24 <readChar+0x30>
    2d20:	10 92 88 00 	sts	0x0088, r1
    2d24:	20 91 88 00 	lds	r18, 0x0088
    2d28:	82 2f       	mov	r24, r18
    2d2a:	90 e0       	ldi	r25, 0x00	; 0
    2d2c:	fc 01       	movw	r30, r24
    2d2e:	e3 5c       	subi	r30, 0xC3	; 195
    2d30:	fe 4f       	sbci	r31, 0xFE	; 254
    2d32:	80 81       	ld	r24, Z
    2d34:	89 83       	std	Y+1, r24	; 0x01
    2d36:	82 2f       	mov	r24, r18
    2d38:	8f 5f       	subi	r24, 0xFF	; 255
    2d3a:	80 93 88 00 	sts	0x0088, r24
    2d3e:	01 c0       	rjmp	.+2      	; 0x2d42 <readChar+0x4e>
    2d40:	19 82       	std	Y+1, r1	; 0x01
    2d42:	89 81       	ldd	r24, Y+1	; 0x01
    2d44:	0f 90       	pop	r0
    2d46:	cf 91       	pop	r28
    2d48:	df 91       	pop	r29
    2d4a:	08 95       	ret

00002d4c <readChars>:
    2d4c:	df 93       	push	r29
    2d4e:	cf 93       	push	r28
    2d50:	00 d0       	rcall	.+0      	; 0x2d52 <readChars+0x6>
    2d52:	00 d0       	rcall	.+0      	; 0x2d54 <readChars+0x8>
    2d54:	cd b7       	in	r28, 0x3d	; 61
    2d56:	de b7       	in	r29, 0x3e	; 62
    2d58:	9b 83       	std	Y+3, r25	; 0x03
    2d5a:	8a 83       	std	Y+2, r24	; 0x02
    2d5c:	6c 83       	std	Y+4, r22	; 0x04
    2d5e:	19 82       	std	Y+1, r1	; 0x01
    2d60:	10 92 3c 01 	sts	0x013C, r1
    2d64:	23 c0       	rjmp	.+70     	; 0x2dac <readChars+0x60>
    2d66:	80 91 8a 00 	lds	r24, 0x008A
    2d6a:	8f 5f       	subi	r24, 0xFF	; 255
    2d6c:	80 93 8a 00 	sts	0x008A, r24
    2d70:	89 81       	ldd	r24, Y+1	; 0x01
    2d72:	28 2f       	mov	r18, r24
    2d74:	30 e0       	ldi	r19, 0x00	; 0
    2d76:	8a 81       	ldd	r24, Y+2	; 0x02
    2d78:	9b 81       	ldd	r25, Y+3	; 0x03
    2d7a:	dc 01       	movw	r26, r24
    2d7c:	a2 0f       	add	r26, r18
    2d7e:	b3 1f       	adc	r27, r19
    2d80:	20 91 88 00 	lds	r18, 0x0088
    2d84:	82 2f       	mov	r24, r18
    2d86:	90 e0       	ldi	r25, 0x00	; 0
    2d88:	fc 01       	movw	r30, r24
    2d8a:	e3 5c       	subi	r30, 0xC3	; 195
    2d8c:	fe 4f       	sbci	r31, 0xFE	; 254
    2d8e:	80 81       	ld	r24, Z
    2d90:	8c 93       	st	X, r24
    2d92:	89 81       	ldd	r24, Y+1	; 0x01
    2d94:	8f 5f       	subi	r24, 0xFF	; 255
    2d96:	89 83       	std	Y+1, r24	; 0x01
    2d98:	82 2f       	mov	r24, r18
    2d9a:	8f 5f       	subi	r24, 0xFF	; 255
    2d9c:	80 93 88 00 	sts	0x0088, r24
    2da0:	80 91 88 00 	lds	r24, 0x0088
    2da4:	81 32       	cpi	r24, 0x21	; 33
    2da6:	10 f0       	brcs	.+4      	; 0x2dac <readChars+0x60>
    2da8:	10 92 88 00 	sts	0x0088, r1
    2dac:	90 91 8b 00 	lds	r25, 0x008B
    2db0:	80 91 8a 00 	lds	r24, 0x008A
    2db4:	98 17       	cp	r25, r24
    2db6:	21 f0       	breq	.+8      	; 0x2dc0 <readChars+0x74>
    2db8:	99 81       	ldd	r25, Y+1	; 0x01
    2dba:	8c 81       	ldd	r24, Y+4	; 0x04
    2dbc:	98 17       	cp	r25, r24
    2dbe:	98 f2       	brcs	.-90     	; 0x2d66 <readChars+0x1a>
    2dc0:	89 81       	ldd	r24, Y+1	; 0x01
    2dc2:	0f 90       	pop	r0
    2dc4:	0f 90       	pop	r0
    2dc6:	0f 90       	pop	r0
    2dc8:	0f 90       	pop	r0
    2dca:	cf 91       	pop	r28
    2dcc:	df 91       	pop	r29
    2dce:	08 95       	ret

00002dd0 <getBufferLength>:
    2dd0:	df 93       	push	r29
    2dd2:	cf 93       	push	r28
    2dd4:	cd b7       	in	r28, 0x3d	; 61
    2dd6:	de b7       	in	r29, 0x3e	; 62
    2dd8:	90 91 8b 00 	lds	r25, 0x008B
    2ddc:	80 91 8a 00 	lds	r24, 0x008A
    2de0:	29 2f       	mov	r18, r25
    2de2:	28 1b       	sub	r18, r24
    2de4:	82 2f       	mov	r24, r18
    2de6:	cf 91       	pop	r28
    2de8:	df 91       	pop	r29
    2dea:	08 95       	ret

00002dec <clearReceptionBuffer>:
    2dec:	df 93       	push	r29
    2dee:	cf 93       	push	r28
    2df0:	cd b7       	in	r28, 0x3d	; 61
    2df2:	de b7       	in	r29, 0x3e	; 62
    2df4:	aa e2       	ldi	r26, 0x2A	; 42
    2df6:	b0 e0       	ldi	r27, 0x00	; 0
    2df8:	ea e2       	ldi	r30, 0x2A	; 42
    2dfa:	f0 e0       	ldi	r31, 0x00	; 0
    2dfc:	80 81       	ld	r24, Z
    2dfe:	8f 77       	andi	r24, 0x7F	; 127
    2e00:	8c 93       	st	X, r24
    2e02:	ec e2       	ldi	r30, 0x2C	; 44
    2e04:	f0 e0       	ldi	r31, 0x00	; 0
    2e06:	80 81       	ld	r24, Z
    2e08:	80 93 8d 00 	sts	0x008D, r24
    2e0c:	10 92 88 00 	sts	0x0088, r1
    2e10:	10 92 89 00 	sts	0x0089, r1
    2e14:	10 92 8a 00 	sts	0x008A, r1
    2e18:	10 92 8b 00 	sts	0x008B, r1
    2e1c:	10 92 3c 01 	sts	0x013C, r1
    2e20:	aa e2       	ldi	r26, 0x2A	; 42
    2e22:	b0 e0       	ldi	r27, 0x00	; 0
    2e24:	ea e2       	ldi	r30, 0x2A	; 42
    2e26:	f0 e0       	ldi	r31, 0x00	; 0
    2e28:	80 81       	ld	r24, Z
    2e2a:	80 68       	ori	r24, 0x80	; 128
    2e2c:	8c 93       	st	X, r24
    2e2e:	cf 91       	pop	r28
    2e30:	df 91       	pop	r29
    2e32:	08 95       	ret

00002e34 <__mulsi3>:
    2e34:	62 9f       	mul	r22, r18
    2e36:	d0 01       	movw	r26, r0
    2e38:	73 9f       	mul	r23, r19
    2e3a:	f0 01       	movw	r30, r0
    2e3c:	82 9f       	mul	r24, r18
    2e3e:	e0 0d       	add	r30, r0
    2e40:	f1 1d       	adc	r31, r1
    2e42:	64 9f       	mul	r22, r20
    2e44:	e0 0d       	add	r30, r0
    2e46:	f1 1d       	adc	r31, r1
    2e48:	92 9f       	mul	r25, r18
    2e4a:	f0 0d       	add	r31, r0
    2e4c:	83 9f       	mul	r24, r19
    2e4e:	f0 0d       	add	r31, r0
    2e50:	74 9f       	mul	r23, r20
    2e52:	f0 0d       	add	r31, r0
    2e54:	65 9f       	mul	r22, r21
    2e56:	f0 0d       	add	r31, r0
    2e58:	99 27       	eor	r25, r25
    2e5a:	72 9f       	mul	r23, r18
    2e5c:	b0 0d       	add	r27, r0
    2e5e:	e1 1d       	adc	r30, r1
    2e60:	f9 1f       	adc	r31, r25
    2e62:	63 9f       	mul	r22, r19
    2e64:	b0 0d       	add	r27, r0
    2e66:	e1 1d       	adc	r30, r1
    2e68:	f9 1f       	adc	r31, r25
    2e6a:	bd 01       	movw	r22, r26
    2e6c:	cf 01       	movw	r24, r30
    2e6e:	11 24       	eor	r1, r1
    2e70:	08 95       	ret

00002e72 <__udivmodhi4>:
    2e72:	aa 1b       	sub	r26, r26
    2e74:	bb 1b       	sub	r27, r27
    2e76:	51 e1       	ldi	r21, 0x11	; 17
    2e78:	07 c0       	rjmp	.+14     	; 0x2e88 <__udivmodhi4_ep>

00002e7a <__udivmodhi4_loop>:
    2e7a:	aa 1f       	adc	r26, r26
    2e7c:	bb 1f       	adc	r27, r27
    2e7e:	a6 17       	cp	r26, r22
    2e80:	b7 07       	cpc	r27, r23
    2e82:	10 f0       	brcs	.+4      	; 0x2e88 <__udivmodhi4_ep>
    2e84:	a6 1b       	sub	r26, r22
    2e86:	b7 0b       	sbc	r27, r23

00002e88 <__udivmodhi4_ep>:
    2e88:	88 1f       	adc	r24, r24
    2e8a:	99 1f       	adc	r25, r25
    2e8c:	5a 95       	dec	r21
    2e8e:	a9 f7       	brne	.-22     	; 0x2e7a <__udivmodhi4_loop>
    2e90:	80 95       	com	r24
    2e92:	90 95       	com	r25
    2e94:	bc 01       	movw	r22, r24
    2e96:	cd 01       	movw	r24, r26
    2e98:	08 95       	ret

00002e9a <__udivmodsi4>:
    2e9a:	a1 e2       	ldi	r26, 0x21	; 33
    2e9c:	1a 2e       	mov	r1, r26
    2e9e:	aa 1b       	sub	r26, r26
    2ea0:	bb 1b       	sub	r27, r27
    2ea2:	fd 01       	movw	r30, r26
    2ea4:	0d c0       	rjmp	.+26     	; 0x2ec0 <__udivmodsi4_ep>

00002ea6 <__udivmodsi4_loop>:
    2ea6:	aa 1f       	adc	r26, r26
    2ea8:	bb 1f       	adc	r27, r27
    2eaa:	ee 1f       	adc	r30, r30
    2eac:	ff 1f       	adc	r31, r31
    2eae:	a2 17       	cp	r26, r18
    2eb0:	b3 07       	cpc	r27, r19
    2eb2:	e4 07       	cpc	r30, r20
    2eb4:	f5 07       	cpc	r31, r21
    2eb6:	20 f0       	brcs	.+8      	; 0x2ec0 <__udivmodsi4_ep>
    2eb8:	a2 1b       	sub	r26, r18
    2eba:	b3 0b       	sbc	r27, r19
    2ebc:	e4 0b       	sbc	r30, r20
    2ebe:	f5 0b       	sbc	r31, r21

00002ec0 <__udivmodsi4_ep>:
    2ec0:	66 1f       	adc	r22, r22
    2ec2:	77 1f       	adc	r23, r23
    2ec4:	88 1f       	adc	r24, r24
    2ec6:	99 1f       	adc	r25, r25
    2ec8:	1a 94       	dec	r1
    2eca:	69 f7       	brne	.-38     	; 0x2ea6 <__udivmodsi4_loop>
    2ecc:	60 95       	com	r22
    2ece:	70 95       	com	r23
    2ed0:	80 95       	com	r24
    2ed2:	90 95       	com	r25
    2ed4:	9b 01       	movw	r18, r22
    2ed6:	ac 01       	movw	r20, r24
    2ed8:	bd 01       	movw	r22, r26
    2eda:	cf 01       	movw	r24, r30
    2edc:	08 95       	ret

00002ede <strlen>:
    2ede:	fc 01       	movw	r30, r24
    2ee0:	01 90       	ld	r0, Z+
    2ee2:	00 20       	and	r0, r0
    2ee4:	e9 f7       	brne	.-6      	; 0x2ee0 <strlen+0x2>
    2ee6:	80 95       	com	r24
    2ee8:	90 95       	com	r25
    2eea:	8e 0f       	add	r24, r30
    2eec:	9f 1f       	adc	r25, r31
    2eee:	08 95       	ret

00002ef0 <itoa>:
    2ef0:	fb 01       	movw	r30, r22
    2ef2:	9f 01       	movw	r18, r30
    2ef4:	e8 94       	clt
    2ef6:	42 30       	cpi	r20, 0x02	; 2
    2ef8:	c4 f0       	brlt	.+48     	; 0x2f2a <itoa+0x3a>
    2efa:	45 32       	cpi	r20, 0x25	; 37
    2efc:	b4 f4       	brge	.+44     	; 0x2f2a <itoa+0x3a>
    2efe:	4a 30       	cpi	r20, 0x0A	; 10
    2f00:	29 f4       	brne	.+10     	; 0x2f0c <itoa+0x1c>
    2f02:	97 fb       	bst	r25, 7
    2f04:	1e f4       	brtc	.+6      	; 0x2f0c <itoa+0x1c>
    2f06:	90 95       	com	r25
    2f08:	81 95       	neg	r24
    2f0a:	9f 4f       	sbci	r25, 0xFF	; 255
    2f0c:	64 2f       	mov	r22, r20
    2f0e:	77 27       	eor	r23, r23
    2f10:	0e 94 39 17 	call	0x2e72	; 0x2e72 <__udivmodhi4>
    2f14:	80 5d       	subi	r24, 0xD0	; 208
    2f16:	8a 33       	cpi	r24, 0x3A	; 58
    2f18:	0c f0       	brlt	.+2      	; 0x2f1c <itoa+0x2c>
    2f1a:	89 5d       	subi	r24, 0xD9	; 217
    2f1c:	81 93       	st	Z+, r24
    2f1e:	cb 01       	movw	r24, r22
    2f20:	00 97       	sbiw	r24, 0x00	; 0
    2f22:	a1 f7       	brne	.-24     	; 0x2f0c <itoa+0x1c>
    2f24:	16 f4       	brtc	.+4      	; 0x2f2a <itoa+0x3a>
    2f26:	5d e2       	ldi	r21, 0x2D	; 45
    2f28:	51 93       	st	Z+, r21
    2f2a:	10 82       	st	Z, r1
    2f2c:	c9 01       	movw	r24, r18
    2f2e:	0c 94 99 17 	jmp	0x2f32	; 0x2f32 <strrev>

00002f32 <strrev>:
    2f32:	dc 01       	movw	r26, r24
    2f34:	fc 01       	movw	r30, r24
    2f36:	67 2f       	mov	r22, r23
    2f38:	71 91       	ld	r23, Z+
    2f3a:	77 23       	and	r23, r23
    2f3c:	e1 f7       	brne	.-8      	; 0x2f36 <strrev+0x4>
    2f3e:	32 97       	sbiw	r30, 0x02	; 2
    2f40:	04 c0       	rjmp	.+8      	; 0x2f4a <strrev+0x18>
    2f42:	7c 91       	ld	r23, X
    2f44:	6d 93       	st	X+, r22
    2f46:	70 83       	st	Z, r23
    2f48:	62 91       	ld	r22, -Z
    2f4a:	ae 17       	cp	r26, r30
    2f4c:	bf 07       	cpc	r27, r31
    2f4e:	c8 f3       	brcs	.-14     	; 0x2f42 <strrev+0x10>
    2f50:	08 95       	ret

00002f52 <_exit>:
    2f52:	f8 94       	cli

00002f54 <__stop_program>:
    2f54:	ff cf       	rjmp	.-2      	; 0x2f54 <__stop_program>
